
rtthread.elf:     file format elf32-littleriscv


Disassembly of section .start:

80003000 <_start>:
80003000:	8108b197          	auipc	gp,0x8108b
80003004:	34018193          	addi	gp,gp,832 # 108e340 <__global_pointer$>
80003008:	8108b217          	auipc	tp,0x8108b
8000300c:	b3820213          	addi	tp,tp,-1224 # 108db40 <_object_container>
80003010:	f40012b7          	lui	t0,0xf4001
80003014:	80028293          	addi	t0,t0,-2048 # f4000800 <__etext+0x73fe8d50>
80003018:	0002a303          	lw	t1,0(t0)
8000301c:	08036313          	ori	t1,t1,128
80003020:	0062a023          	sw	t1,0(t0)
80003024:	810cf297          	auipc	t0,0x810cf
80003028:	fa428293          	addi	t0,t0,-92 # 10d1fc8 <__rt_rvstack>
8000302c:	8116                	mv	sp,t0
8000302e:	1fb0c0ef          	jal	ra,8000fa28 <_init_ext_ram>
80003032:	810cf297          	auipc	t0,0x810cf
80003036:	f9628293          	addi	t0,t0,-106 # 10d1fc8 <__rt_rvstack>
8000303a:	8116                	mv	sp,t0
8000303c:	8107d297          	auipc	t0,0x8107d
80003040:	66428293          	addi	t0,t0,1636 # 10806a0 <SW_handler>
80003044:	30529073          	csrw	mtvec,t0
80003048:	7d017073          	csrci	0x7d0,2
8000304c:	770030ef          	jal	ra,800067bc <reset_handler>
80003050:	a001                	j	80003050 <_start+0x50>

80003052 <nmi_handler>:
80003052:	a001                	j	80003052 <nmi_handler>

80003054 <default_irq_handler>:
80003054:	a001                	j	80003054 <default_irq_handler>

Disassembly of section .vectors:

01080000 <__vector_ram_start__>:
 1080000:	06a0                	addi	s0,sp,840
 1080002:	0108                	addi	a0,sp,128
 1080004:	02ae                	slli	t0,t0,0xb
 1080006:	0108                	addi	a0,sp,128
 1080008:	02da                	slli	t0,t0,0x16
 108000a:	0108                	addi	a0,sp,128
 108000c:	0306                	slli	t1,t1,0x1
 108000e:	0108                	addi	a0,sp,128
 1080010:	0332                	slli	t1,t1,0xc
 1080012:	0108                	addi	a0,sp,128
 1080014:	035e                	slli	t1,t1,0x17
 1080016:	0108                	addi	a0,sp,128
 1080018:	038a                	slli	t2,t2,0x2
 108001a:	0108                	addi	a0,sp,128
 108001c:	03b6                	slli	t2,t2,0xd
 108001e:	0108                	addi	a0,sp,128
 1080020:	03e2                	slli	t2,t2,0x18
 1080022:	0108                	addi	a0,sp,128
 1080024:	040e                	slli	s0,s0,0x3
 1080026:	0108                	addi	a0,sp,128
 1080028:	3054                	.2byte	0x3054
 108002a:	8000                	.2byte	0x8000
 108002c:	3054                	.2byte	0x3054
 108002e:	8000                	.2byte	0x8000
 1080030:	3054                	.2byte	0x3054
 1080032:	8000                	.2byte	0x8000
 1080034:	3054                	.2byte	0x3054
 1080036:	8000                	.2byte	0x8000
 1080038:	3054                	.2byte	0x3054
 108003a:	8000                	.2byte	0x8000
 108003c:	3054                	.2byte	0x3054
 108003e:	8000                	.2byte	0x8000
 1080040:	3054                	.2byte	0x3054
 1080042:	8000                	.2byte	0x8000
 1080044:	3054                	.2byte	0x3054
 1080046:	8000                	.2byte	0x8000
 1080048:	3054                	.2byte	0x3054
 108004a:	8000                	.2byte	0x8000
 108004c:	3054                	.2byte	0x3054
 108004e:	8000                	.2byte	0x8000
 1080050:	3054                	.2byte	0x3054
 1080052:	8000                	.2byte	0x8000
 1080054:	3054                	.2byte	0x3054
 1080056:	8000                	.2byte	0x8000
 1080058:	3054                	.2byte	0x3054
 108005a:	8000                	.2byte	0x8000
 108005c:	3054                	.2byte	0x3054
 108005e:	8000                	.2byte	0x8000
 1080060:	3054                	.2byte	0x3054
 1080062:	8000                	.2byte	0x8000
 1080064:	3054                	.2byte	0x3054
 1080066:	8000                	.2byte	0x8000
 1080068:	3054                	.2byte	0x3054
 108006a:	8000                	.2byte	0x8000
 108006c:	3054                	.2byte	0x3054
 108006e:	8000                	.2byte	0x8000
 1080070:	049a                	slli	s1,s1,0x6
 1080072:	0108                	addi	a0,sp,128
 1080074:	3054                	.2byte	0x3054
 1080076:	8000                	.2byte	0x8000
 1080078:	3054                	.2byte	0x3054
 108007a:	8000                	.2byte	0x8000
 108007c:	04c8                	addi	a0,sp,580
 108007e:	0108                	addi	a0,sp,128
 1080080:	3054                	.2byte	0x3054
 1080082:	8000                	.2byte	0x8000
 1080084:	3054                	.2byte	0x3054
 1080086:	8000                	.2byte	0x8000
 1080088:	3054                	.2byte	0x3054
 108008a:	8000                	.2byte	0x8000
 108008c:	3054                	.2byte	0x3054
 108008e:	8000                	.2byte	0x8000
 1080090:	3054                	.2byte	0x3054
 1080092:	8000                	.2byte	0x8000
 1080094:	3054                	.2byte	0x3054
 1080096:	8000                	.2byte	0x8000
 1080098:	3054                	.2byte	0x3054
 108009a:	8000                	.2byte	0x8000
 108009c:	3054                	.2byte	0x3054
 108009e:	8000                	.2byte	0x8000
 10800a0:	3054                	.2byte	0x3054
 10800a2:	8000                	.2byte	0x8000
 10800a4:	3054                	.2byte	0x3054
 10800a6:	8000                	.2byte	0x8000
 10800a8:	3054                	.2byte	0x3054
 10800aa:	8000                	.2byte	0x8000
 10800ac:	3054                	.2byte	0x3054
 10800ae:	8000                	.2byte	0x8000
 10800b0:	3054                	.2byte	0x3054
 10800b2:	8000                	.2byte	0x8000
 10800b4:	3054                	.2byte	0x3054
 10800b6:	8000                	.2byte	0x8000
 10800b8:	3054                	.2byte	0x3054
 10800ba:	8000                	.2byte	0x8000
 10800bc:	3054                	.2byte	0x3054
 10800be:	8000                	.2byte	0x8000
 10800c0:	3054                	.2byte	0x3054
 10800c2:	8000                	.2byte	0x8000
 10800c4:	3054                	.2byte	0x3054
 10800c6:	8000                	.2byte	0x8000
 10800c8:	3054                	.2byte	0x3054
 10800ca:	8000                	.2byte	0x8000
 10800cc:	3054                	.2byte	0x3054
 10800ce:	8000                	.2byte	0x8000
 10800d0:	3054                	.2byte	0x3054
 10800d2:	8000                	.2byte	0x8000
 10800d4:	3054                	.2byte	0x3054
 10800d6:	8000                	.2byte	0x8000
 10800d8:	3054                	.2byte	0x3054
 10800da:	8000                	.2byte	0x8000
 10800dc:	3054                	.2byte	0x3054
 10800de:	8000                	.2byte	0x8000
 10800e0:	3054                	.2byte	0x3054
 10800e2:	8000                	.2byte	0x8000
 10800e4:	3054                	.2byte	0x3054
 10800e6:	8000                	.2byte	0x8000
 10800e8:	3054                	.2byte	0x3054
 10800ea:	8000                	.2byte	0x8000
 10800ec:	3054                	.2byte	0x3054
 10800ee:	8000                	.2byte	0x8000
 10800f0:	3054                	.2byte	0x3054
 10800f2:	8000                	.2byte	0x8000
 10800f4:	3054                	.2byte	0x3054
 10800f6:	8000                	.2byte	0x8000
 10800f8:	3054                	.2byte	0x3054
 10800fa:	8000                	.2byte	0x8000
 10800fc:	3054                	.2byte	0x3054
 10800fe:	8000                	.2byte	0x8000
 1080100:	3054                	.2byte	0x3054
 1080102:	8000                	.2byte	0x8000
 1080104:	3054                	.2byte	0x3054
 1080106:	8000                	.2byte	0x8000
 1080108:	3054                	.2byte	0x3054
 108010a:	8000                	.2byte	0x8000
 108010c:	050c                	addi	a1,sp,640
 108010e:	0108                	addi	a0,sp,128
 1080110:	3054                	.2byte	0x3054
 1080112:	8000                	.2byte	0x8000
 1080114:	3054                	.2byte	0x3054
 1080116:	8000                	.2byte	0x8000
 1080118:	3054                	.2byte	0x3054
 108011a:	8000                	.2byte	0x8000
 108011c:	3054                	.2byte	0x3054
 108011e:	8000                	.2byte	0x8000
 1080120:	3054                	.2byte	0x3054
 1080122:	8000                	.2byte	0x8000
 1080124:	3054                	.2byte	0x3054
 1080126:	8000                	.2byte	0x8000
 1080128:	3054                	.2byte	0x3054
 108012a:	8000                	.2byte	0x8000
 108012c:	3054                	.2byte	0x3054
 108012e:	8000                	.2byte	0x8000
 1080130:	3054                	.2byte	0x3054
 1080132:	8000                	.2byte	0x8000
 1080134:	3054                	.2byte	0x3054
 1080136:	8000                	.2byte	0x8000
 1080138:	3054                	.2byte	0x3054
 108013a:	8000                	.2byte	0x8000
 108013c:	3054                	.2byte	0x3054
 108013e:	8000                	.2byte	0x8000
 1080140:	3054                	.2byte	0x3054
 1080142:	8000                	.2byte	0x8000
 1080144:	3054                	.2byte	0x3054
 1080146:	8000                	.2byte	0x8000
 1080148:	3054                	.2byte	0x3054
 108014a:	8000                	.2byte	0x8000
 108014c:	3054                	.2byte	0x3054
 108014e:	8000                	.2byte	0x8000
 1080150:	3054                	.2byte	0x3054
 1080152:	8000                	.2byte	0x8000
 1080154:	3054                	.2byte	0x3054
 1080156:	8000                	.2byte	0x8000
 1080158:	3054                	.2byte	0x3054
 108015a:	8000                	.2byte	0x8000
 108015c:	0282                	c.slli64	t0
 108015e:	0108                	addi	a0,sp,128
 1080160:	0252                	slli	tp,tp,0x14
 1080162:	0108                	addi	a0,sp,128
 1080164:	3054                	.2byte	0x3054
 1080166:	8000                	.2byte	0x8000
 1080168:	3054                	.2byte	0x3054
 108016a:	8000                	.2byte	0x8000
 108016c:	3054                	.2byte	0x3054
 108016e:	8000                	.2byte	0x8000
 1080170:	3054                	.2byte	0x3054
 1080172:	8000                	.2byte	0x8000
 1080174:	3054                	.2byte	0x3054
 1080176:	8000                	.2byte	0x8000
 1080178:	3054                	.2byte	0x3054
 108017a:	8000                	.2byte	0x8000
 108017c:	3054                	.2byte	0x3054
 108017e:	8000                	.2byte	0x8000
 1080180:	3054                	.2byte	0x3054
 1080182:	8000                	.2byte	0x8000
 1080184:	3054                	.2byte	0x3054
 1080186:	8000                	.2byte	0x8000
 1080188:	3054                	.2byte	0x3054
 108018a:	8000                	.2byte	0x8000
 108018c:	3054                	.2byte	0x3054
 108018e:	8000                	.2byte	0x8000
 1080190:	3054                	.2byte	0x3054
 1080192:	8000                	.2byte	0x8000
 1080194:	3054                	.2byte	0x3054
 1080196:	8000                	.2byte	0x8000
 1080198:	3054                	.2byte	0x3054
 108019a:	8000                	.2byte	0x8000
 108019c:	3054                	.2byte	0x3054
 108019e:	8000                	.2byte	0x8000
 10801a0:	3054                	.2byte	0x3054
 10801a2:	8000                	.2byte	0x8000
 10801a4:	3054                	.2byte	0x3054
 10801a6:	8000                	.2byte	0x8000
 10801a8:	3054                	.2byte	0x3054
 10801aa:	8000                	.2byte	0x8000
 10801ac:	3054                	.2byte	0x3054
 10801ae:	8000                	.2byte	0x8000
 10801b0:	3054                	.2byte	0x3054
 10801b2:	8000                	.2byte	0x8000
 10801b4:	3054                	.2byte	0x3054
 10801b6:	8000                	.2byte	0x8000
 10801b8:	3054                	.2byte	0x3054
 10801ba:	8000                	.2byte	0x8000
 10801bc:	3054                	.2byte	0x3054
 10801be:	8000                	.2byte	0x8000
 10801c0:	3054                	.2byte	0x3054
 10801c2:	8000                	.2byte	0x8000
 10801c4:	3054                	.2byte	0x3054
 10801c6:	8000                	.2byte	0x8000
 10801c8:	3054                	.2byte	0x3054
 10801ca:	8000                	.2byte	0x8000
 10801cc:	3054                	.2byte	0x3054
 10801ce:	8000                	.2byte	0x8000
 10801d0:	3054                	.2byte	0x3054
 10801d2:	8000                	.2byte	0x8000
 10801d4:	3054                	.2byte	0x3054
 10801d6:	8000                	.2byte	0x8000
 10801d8:	3054                	.2byte	0x3054
 10801da:	8000                	.2byte	0x8000
 10801dc:	3054                	.2byte	0x3054
 10801de:	8000                	.2byte	0x8000
 10801e0:	3054                	.2byte	0x3054
 10801e2:	8000                	.2byte	0x8000
 10801e4:	3054                	.2byte	0x3054
 10801e6:	8000                	.2byte	0x8000
 10801e8:	3054                	.2byte	0x3054
 10801ea:	8000                	.2byte	0x8000
 10801ec:	3054                	.2byte	0x3054
 10801ee:	8000                	.2byte	0x8000
 10801f0:	3054                	.2byte	0x3054
 10801f2:	8000                	.2byte	0x8000
 10801f4:	3054                	.2byte	0x3054
 10801f6:	8000                	.2byte	0x8000
 10801f8:	3054                	.2byte	0x3054
 10801fa:	8000                	.2byte	0x8000
 10801fc:	3054                	.2byte	0x3054
 10801fe:	8000                	.2byte	0x8000

01080200 <mchtmr_isr>:
 1080200:	1141                	addi	sp,sp,-16
 1080202:	c606                	sw	ra,12(sp)
 1080204:	c422                	sw	s0,8(sp)
 1080206:	0800                	addi	s0,sp,16
 1080208:	e6000737          	lui	a4,0xe6000
 108020c:	00072803          	lw	a6,0(a4) # e6000000 <__etext+0x65fe8550>
 1080210:	00472883          	lw	a7,4(a4)
 1080214:	6799                	lui	a5,0x6
 1080216:	dc078793          	addi	a5,a5,-576 # 5dc0 <STACK_SIZE+0x1dc0>
 108021a:	97c2                	add	a5,a5,a6
 108021c:	0107b533          	sltu	a0,a5,a6
 1080220:	011506b3          	add	a3,a0,a7
 1080224:	c71c                	sw	a5,8(a4)
 1080226:	c754                	sw	a3,12(a4)
 1080228:	23f000ef          	jal	ra,1080c66 <rt_tick_increase>
 108022c:	40b2                	lw	ra,12(sp)
 108022e:	4422                	lw	s0,8(sp)
 1080230:	0141                	addi	sp,sp,16
 1080232:	8082                	ret

01080234 <dma0_isr>:
 1080234:	1141                	addi	sp,sp,-16
 1080236:	c606                	sw	ra,12(sp)
 1080238:	c422                	sw	s0,8(sp)
 108023a:	0800                	addi	s0,sp,16
 108023c:	4581                	li	a1,0
 108023e:	f00c4537          	lui	a0,0xf00c4
 1080242:	7ef8f097          	auipc	ra,0x7ef8f
 1080246:	8b6080e7          	jalr	-1866(ra) # 8000eaf8 <dma_mgr_isr_handler>
 108024a:	40b2                	lw	ra,12(sp)
 108024c:	4422                	lw	s0,8(sp)
 108024e:	0141                	addi	sp,sp,16
 1080250:	8082                	ret

01080252 <default_isr_88>:
 1080252:	1141                	addi	sp,sp,-16
 1080254:	c606                	sw	ra,12(sp)
 1080256:	c422                	sw	s0,8(sp)
 1080258:	0800                	addi	s0,sp,16
 108025a:	3fe9                	jal	1080234 <dma0_isr>
 108025c:	40b2                	lw	ra,12(sp)
 108025e:	4422                	lw	s0,8(sp)
 1080260:	0141                	addi	sp,sp,16
 1080262:	8082                	ret

01080264 <dma1_isr>:
 1080264:	1141                	addi	sp,sp,-16
 1080266:	c606                	sw	ra,12(sp)
 1080268:	c422                	sw	s0,8(sp)
 108026a:	0800                	addi	s0,sp,16
 108026c:	4585                	li	a1,1
 108026e:	f3048537          	lui	a0,0xf3048
 1080272:	7ef8f097          	auipc	ra,0x7ef8f
 1080276:	886080e7          	jalr	-1914(ra) # 8000eaf8 <dma_mgr_isr_handler>
 108027a:	40b2                	lw	ra,12(sp)
 108027c:	4422                	lw	s0,8(sp)
 108027e:	0141                	addi	sp,sp,16
 1080280:	8082                	ret

01080282 <default_isr_87>:
 1080282:	1141                	addi	sp,sp,-16
 1080284:	c606                	sw	ra,12(sp)
 1080286:	c422                	sw	s0,8(sp)
 1080288:	0800                	addi	s0,sp,16
 108028a:	3fe9                	jal	1080264 <dma1_isr>
 108028c:	40b2                	lw	ra,12(sp)
 108028e:	4422                	lw	s0,8(sp)
 1080290:	0141                	addi	sp,sp,16
 1080292:	8082                	ret

01080294 <gpioa_isr>:
 1080294:	1141                	addi	sp,sp,-16
 1080296:	c606                	sw	ra,12(sp)
 1080298:	c422                	sw	s0,8(sp)
 108029a:	0800                	addi	s0,sp,16
 108029c:	f00005b7          	lui	a1,0xf0000
 10802a0:	4501                	li	a0,0
 10802a2:	01d090ef          	jal	ra,1089abe <hpm_gpio_isr>
 10802a6:	40b2                	lw	ra,12(sp)
 10802a8:	4422                	lw	s0,8(sp)
 10802aa:	0141                	addi	sp,sp,16
 10802ac:	8082                	ret

010802ae <default_isr_1>:
 10802ae:	1141                	addi	sp,sp,-16
 10802b0:	c606                	sw	ra,12(sp)
 10802b2:	c422                	sw	s0,8(sp)
 10802b4:	0800                	addi	s0,sp,16
 10802b6:	3ff9                	jal	1080294 <gpioa_isr>
 10802b8:	40b2                	lw	ra,12(sp)
 10802ba:	4422                	lw	s0,8(sp)
 10802bc:	0141                	addi	sp,sp,16
 10802be:	8082                	ret

010802c0 <gpiob_isr>:
 10802c0:	1141                	addi	sp,sp,-16
 10802c2:	c606                	sw	ra,12(sp)
 10802c4:	c422                	sw	s0,8(sp)
 10802c6:	0800                	addi	s0,sp,16
 10802c8:	f00005b7          	lui	a1,0xf0000
 10802cc:	4505                	li	a0,1
 10802ce:	7f0090ef          	jal	ra,1089abe <hpm_gpio_isr>
 10802d2:	40b2                	lw	ra,12(sp)
 10802d4:	4422                	lw	s0,8(sp)
 10802d6:	0141                	addi	sp,sp,16
 10802d8:	8082                	ret

010802da <default_isr_2>:
 10802da:	1141                	addi	sp,sp,-16
 10802dc:	c606                	sw	ra,12(sp)
 10802de:	c422                	sw	s0,8(sp)
 10802e0:	0800                	addi	s0,sp,16
 10802e2:	3ff9                	jal	10802c0 <gpiob_isr>
 10802e4:	40b2                	lw	ra,12(sp)
 10802e6:	4422                	lw	s0,8(sp)
 10802e8:	0141                	addi	sp,sp,16
 10802ea:	8082                	ret

010802ec <gpioc_isr>:
 10802ec:	1141                	addi	sp,sp,-16
 10802ee:	c606                	sw	ra,12(sp)
 10802f0:	c422                	sw	s0,8(sp)
 10802f2:	0800                	addi	s0,sp,16
 10802f4:	f00005b7          	lui	a1,0xf0000
 10802f8:	4509                	li	a0,2
 10802fa:	7c4090ef          	jal	ra,1089abe <hpm_gpio_isr>
 10802fe:	40b2                	lw	ra,12(sp)
 1080300:	4422                	lw	s0,8(sp)
 1080302:	0141                	addi	sp,sp,16
 1080304:	8082                	ret

01080306 <default_isr_3>:
 1080306:	1141                	addi	sp,sp,-16
 1080308:	c606                	sw	ra,12(sp)
 108030a:	c422                	sw	s0,8(sp)
 108030c:	0800                	addi	s0,sp,16
 108030e:	3ff9                	jal	10802ec <gpioc_isr>
 1080310:	40b2                	lw	ra,12(sp)
 1080312:	4422                	lw	s0,8(sp)
 1080314:	0141                	addi	sp,sp,16
 1080316:	8082                	ret

01080318 <gpiod_isr>:
 1080318:	1141                	addi	sp,sp,-16
 108031a:	c606                	sw	ra,12(sp)
 108031c:	c422                	sw	s0,8(sp)
 108031e:	0800                	addi	s0,sp,16
 1080320:	f00005b7          	lui	a1,0xf0000
 1080324:	450d                	li	a0,3
 1080326:	798090ef          	jal	ra,1089abe <hpm_gpio_isr>
 108032a:	40b2                	lw	ra,12(sp)
 108032c:	4422                	lw	s0,8(sp)
 108032e:	0141                	addi	sp,sp,16
 1080330:	8082                	ret

01080332 <default_isr_4>:
 1080332:	1141                	addi	sp,sp,-16
 1080334:	c606                	sw	ra,12(sp)
 1080336:	c422                	sw	s0,8(sp)
 1080338:	0800                	addi	s0,sp,16
 108033a:	3ff9                	jal	1080318 <gpiod_isr>
 108033c:	40b2                	lw	ra,12(sp)
 108033e:	4422                	lw	s0,8(sp)
 1080340:	0141                	addi	sp,sp,16
 1080342:	8082                	ret

01080344 <gpioe_isr>:
 1080344:	1141                	addi	sp,sp,-16
 1080346:	c606                	sw	ra,12(sp)
 1080348:	c422                	sw	s0,8(sp)
 108034a:	0800                	addi	s0,sp,16
 108034c:	f00005b7          	lui	a1,0xf0000
 1080350:	4511                	li	a0,4
 1080352:	76c090ef          	jal	ra,1089abe <hpm_gpio_isr>
 1080356:	40b2                	lw	ra,12(sp)
 1080358:	4422                	lw	s0,8(sp)
 108035a:	0141                	addi	sp,sp,16
 108035c:	8082                	ret

0108035e <default_isr_5>:
 108035e:	1141                	addi	sp,sp,-16
 1080360:	c606                	sw	ra,12(sp)
 1080362:	c422                	sw	s0,8(sp)
 1080364:	0800                	addi	s0,sp,16
 1080366:	3ff9                	jal	1080344 <gpioe_isr>
 1080368:	40b2                	lw	ra,12(sp)
 108036a:	4422                	lw	s0,8(sp)
 108036c:	0141                	addi	sp,sp,16
 108036e:	8082                	ret

01080370 <gpiof_isr>:
 1080370:	1141                	addi	sp,sp,-16
 1080372:	c606                	sw	ra,12(sp)
 1080374:	c422                	sw	s0,8(sp)
 1080376:	0800                	addi	s0,sp,16
 1080378:	f00005b7          	lui	a1,0xf0000
 108037c:	4515                	li	a0,5
 108037e:	740090ef          	jal	ra,1089abe <hpm_gpio_isr>
 1080382:	40b2                	lw	ra,12(sp)
 1080384:	4422                	lw	s0,8(sp)
 1080386:	0141                	addi	sp,sp,16
 1080388:	8082                	ret

0108038a <default_isr_6>:
 108038a:	1141                	addi	sp,sp,-16
 108038c:	c606                	sw	ra,12(sp)
 108038e:	c422                	sw	s0,8(sp)
 1080390:	0800                	addi	s0,sp,16
 1080392:	3ff9                	jal	1080370 <gpiof_isr>
 1080394:	40b2                	lw	ra,12(sp)
 1080396:	4422                	lw	s0,8(sp)
 1080398:	0141                	addi	sp,sp,16
 108039a:	8082                	ret

0108039c <gpiox_isr>:
 108039c:	1141                	addi	sp,sp,-16
 108039e:	c606                	sw	ra,12(sp)
 10803a0:	c422                	sw	s0,8(sp)
 10803a2:	0800                	addi	s0,sp,16
 10803a4:	f00005b7          	lui	a1,0xf0000
 10803a8:	4535                	li	a0,13
 10803aa:	714090ef          	jal	ra,1089abe <hpm_gpio_isr>
 10803ae:	40b2                	lw	ra,12(sp)
 10803b0:	4422                	lw	s0,8(sp)
 10803b2:	0141                	addi	sp,sp,16
 10803b4:	8082                	ret

010803b6 <default_isr_7>:
 10803b6:	1141                	addi	sp,sp,-16
 10803b8:	c606                	sw	ra,12(sp)
 10803ba:	c422                	sw	s0,8(sp)
 10803bc:	0800                	addi	s0,sp,16
 10803be:	3ff9                	jal	108039c <gpiox_isr>
 10803c0:	40b2                	lw	ra,12(sp)
 10803c2:	4422                	lw	s0,8(sp)
 10803c4:	0141                	addi	sp,sp,16
 10803c6:	8082                	ret

010803c8 <gpioy_isr>:
 10803c8:	1141                	addi	sp,sp,-16
 10803ca:	c606                	sw	ra,12(sp)
 10803cc:	c422                	sw	s0,8(sp)
 10803ce:	0800                	addi	s0,sp,16
 10803d0:	f00005b7          	lui	a1,0xf0000
 10803d4:	4539                	li	a0,14
 10803d6:	6e8090ef          	jal	ra,1089abe <hpm_gpio_isr>
 10803da:	40b2                	lw	ra,12(sp)
 10803dc:	4422                	lw	s0,8(sp)
 10803de:	0141                	addi	sp,sp,16
 10803e0:	8082                	ret

010803e2 <default_isr_8>:
 10803e2:	1141                	addi	sp,sp,-16
 10803e4:	c606                	sw	ra,12(sp)
 10803e6:	c422                	sw	s0,8(sp)
 10803e8:	0800                	addi	s0,sp,16
 10803ea:	3ff9                	jal	10803c8 <gpioy_isr>
 10803ec:	40b2                	lw	ra,12(sp)
 10803ee:	4422                	lw	s0,8(sp)
 10803f0:	0141                	addi	sp,sp,16
 10803f2:	8082                	ret

010803f4 <gpioz_isr>:
 10803f4:	1141                	addi	sp,sp,-16
 10803f6:	c606                	sw	ra,12(sp)
 10803f8:	c422                	sw	s0,8(sp)
 10803fa:	0800                	addi	s0,sp,16
 10803fc:	f00005b7          	lui	a1,0xf0000
 1080400:	453d                	li	a0,15
 1080402:	6bc090ef          	jal	ra,1089abe <hpm_gpio_isr>
 1080406:	40b2                	lw	ra,12(sp)
 1080408:	4422                	lw	s0,8(sp)
 108040a:	0141                	addi	sp,sp,16
 108040c:	8082                	ret

0108040e <default_isr_9>:
 108040e:	1141                	addi	sp,sp,-16
 1080410:	c606                	sw	ra,12(sp)
 1080412:	c422                	sw	s0,8(sp)
 1080414:	0800                	addi	s0,sp,16
 1080416:	3ff9                	jal	10803f4 <gpioz_isr>
 1080418:	40b2                	lw	ra,12(sp)
 108041a:	4422                	lw	s0,8(sp)
 108041c:	0141                	addi	sp,sp,16
 108041e:	8082                	ret

01080420 <spi1_isr>:
 1080420:	1101                	addi	sp,sp,-32
 1080422:	ce06                	sw	ra,28(sp)
 1080424:	cc22                	sw	s0,24(sp)
 1080426:	ca26                	sw	s1,20(sp)
 1080428:	c84a                	sw	s2,16(sp)
 108042a:	1000                	addi	s0,sp,32
 108042c:	28d5                	jal	1080520 <__vector_ram_end__>
 108042e:	84aa                	mv	s1,a0
 1080430:	f00347b7          	lui	a5,0xf0034
 1080434:	5fdc                	lw	a5,60(a5)
 1080436:	fef42623          	sw	a5,-20(s0)
 108043a:	fec42783          	lw	a5,-20(s0)
 108043e:	8bc1                	andi	a5,a5,16
 1080440:	cb8d                	beqz	a5,1080472 <spi1_isr+0x52>
 1080442:	4901                	li	s2,0
 1080444:	a831                	j	1080460 <spi1_isr+0x40>
 1080446:	0cc00713          	li	a4,204
 108044a:	02e90733          	mul	a4,s2,a4
 108044e:	96c18793          	addi	a5,gp,-1684 # 108dcac <hpm_spis>
 1080452:	97ba                	add	a5,a5,a4
 1080454:	4798                	lw	a4,8(a5)
 1080456:	f00347b7          	lui	a5,0xf0034
 108045a:	02f70463          	beq	a4,a5,1080482 <spi1_isr+0x62>
 108045e:	0905                	addi	s2,s2,1
 1080460:	fe0903e3          	beqz	s2,1080446 <spi1_isr+0x26>
 1080464:	f00347b7          	lui	a5,0xf0034
 1080468:	5f98                	lw	a4,56(a5)
 108046a:	9b3d                	andi	a4,a4,-17
 108046c:	df98                	sw	a4,56(a5)
 108046e:	4741                	li	a4,16
 1080470:	dfd8                	sw	a4,60(a5)
 1080472:	8526                	mv	a0,s1
 1080474:	284d                	jal	1080526 <rt_hw_interrupt_enable>
 1080476:	40f2                	lw	ra,28(sp)
 1080478:	4462                	lw	s0,24(sp)
 108047a:	44d2                	lw	s1,20(sp)
 108047c:	4942                	lw	s2,16(sp)
 108047e:	6105                	addi	sp,sp,32
 1080480:	8082                	ret
 1080482:	0cc00713          	li	a4,204
 1080486:	02e90733          	mul	a4,s2,a4
 108048a:	96c18793          	addi	a5,gp,-1684 # 108dcac <hpm_spis>
 108048e:	97ba                	add	a5,a5,a4
 1080490:	0bc7a503          	lw	a0,188(a5) # f00340bc <__etext+0x7001c60c>
 1080494:	336040ef          	jal	ra,10847ca <rt_sem_release>
 1080498:	b7d9                	j	108045e <spi1_isr+0x3e>

0108049a <default_isr_28>:
 108049a:	1141                	addi	sp,sp,-16
 108049c:	c606                	sw	ra,12(sp)
 108049e:	c422                	sw	s0,8(sp)
 10804a0:	0800                	addi	s0,sp,16
 10804a2:	3fbd                	jal	1080420 <spi1_isr>
 10804a4:	40b2                	lw	ra,12(sp)
 10804a6:	4422                	lw	s0,8(sp)
 10804a8:	0141                	addi	sp,sp,16
 10804aa:	8082                	ret

010804ac <uart0_isr>:
 10804ac:	1141                	addi	sp,sp,-16
 10804ae:	c606                	sw	ra,12(sp)
 10804b0:	c422                	sw	s0,8(sp)
 10804b2:	0800                	addi	s0,sp,16
 10804b4:	0108e537          	lui	a0,0x108e
 10804b8:	a0450513          	addi	a0,a0,-1532 # 108da04 <serial0>
 10804bc:	3190a0ef          	jal	ra,108afd4 <hpm_uart_isr>
 10804c0:	40b2                	lw	ra,12(sp)
 10804c2:	4422                	lw	s0,8(sp)
 10804c4:	0141                	addi	sp,sp,16
 10804c6:	8082                	ret

010804c8 <default_isr_31>:
 10804c8:	1141                	addi	sp,sp,-16
 10804ca:	c606                	sw	ra,12(sp)
 10804cc:	c422                	sw	s0,8(sp)
 10804ce:	0800                	addi	s0,sp,16
 10804d0:	3ff1                	jal	10804ac <uart0_isr>
 10804d2:	40b2                	lw	ra,12(sp)
 10804d4:	4422                	lw	s0,8(sp)
 10804d6:	0141                	addi	sp,sp,16
 10804d8:	8082                	ret

010804da <board_timer_isr>:
 10804da:	f301c7b7          	lui	a5,0xf301c
 10804de:	2007a783          	lw	a5,512(a5) # f301c200 <__etext+0x73004750>
 10804e2:	8bc1                	andi	a5,a5,16
 10804e4:	c39d                	beqz	a5,108050a <board_timer_isr+0x30>
 10804e6:	1141                	addi	sp,sp,-16
 10804e8:	c606                	sw	ra,12(sp)
 10804ea:	c422                	sw	s0,8(sp)
 10804ec:	0800                	addi	s0,sp,16
 10804ee:	f301c7b7          	lui	a5,0xf301c
 10804f2:	4741                	li	a4,16
 10804f4:	20e7a023          	sw	a4,512(a5) # f301c200 <__etext+0x73004750>
 10804f8:	0108e7b7          	lui	a5,0x108e
 10804fc:	b287a783          	lw	a5,-1240(a5) # 108db28 <timer_cb>
 1080500:	9782                	jalr	a5
 1080502:	40b2                	lw	ra,12(sp)
 1080504:	4422                	lw	s0,8(sp)
 1080506:	0141                	addi	sp,sp,16
 1080508:	8082                	ret
 108050a:	8082                	ret

0108050c <default_isr_67>:
 108050c:	1141                	addi	sp,sp,-16
 108050e:	c606                	sw	ra,12(sp)
 1080510:	c422                	sw	s0,8(sp)
 1080512:	0800                	addi	s0,sp,16
 1080514:	37d9                	jal	10804da <board_timer_isr>
 1080516:	40b2                	lw	ra,12(sp)
 1080518:	4422                	lw	s0,8(sp)
 108051a:	0141                	addi	sp,sp,16
 108051c:	8082                	ret
	...

Disassembly of section .fast:

01080520 <__ramfunc_start__>:
 1080520:	30047573          	csrrci	a0,mstatus,8
 1080524:	8082                	ret

01080526 <rt_hw_interrupt_enable>:
 1080526:	30051073          	csrw	mstatus,a0
 108052a:	8082                	ret

0108052c <rt_hw_context_switch_to>:
 108052c:	00052297          	auipc	t0,0x52
 1080530:	a9c28293          	addi	t0,t0,-1380 # 10d1fc8 <__rt_rvstack>
 1080534:	34029073          	csrw	mscratch,t0
 1080538:	00052103          	lw	sp,0(a0)
 108053c:	4522                	lw	a0,8(sp)
 108053e:	30051073          	csrw	mstatus,a0
 1080542:	a8a1                	j	108059a <rt_hw_context_switch_exit>

01080544 <rt_hw_context_switch>:
 1080544:	7119                	addi	sp,sp,-128
 1080546:	00252023          	sw	sp,0(a0)
 108054a:	c006                	sw	ra,0(sp)
 108054c:	c206                	sw	ra,4(sp)
 108054e:	30002573          	csrr	a0,mstatus
 1080552:	8921                	andi	a0,a0,8
 1080554:	c119                	beqz	a0,108055a <save_mpie>
 1080556:	08000513          	li	a0,128

0108055a <save_mpie>:
 108055a:	c42a                	sw	a0,8(sp)
 108055c:	c812                	sw	tp,16(sp)
 108055e:	ca16                	sw	t0,20(sp)
 1080560:	cc1a                	sw	t1,24(sp)
 1080562:	ce1e                	sw	t2,28(sp)
 1080564:	d022                	sw	s0,32(sp)
 1080566:	d226                	sw	s1,36(sp)
 1080568:	d42a                	sw	a0,40(sp)
 108056a:	d62e                	sw	a1,44(sp)
 108056c:	d832                	sw	a2,48(sp)
 108056e:	da36                	sw	a3,52(sp)
 1080570:	dc3a                	sw	a4,56(sp)
 1080572:	de3e                	sw	a5,60(sp)
 1080574:	c0c2                	sw	a6,64(sp)
 1080576:	c2c6                	sw	a7,68(sp)
 1080578:	c4ca                	sw	s2,72(sp)
 108057a:	c6ce                	sw	s3,76(sp)
 108057c:	c8d2                	sw	s4,80(sp)
 108057e:	cad6                	sw	s5,84(sp)
 1080580:	ccda                	sw	s6,88(sp)
 1080582:	cede                	sw	s7,92(sp)
 1080584:	d0e2                	sw	s8,96(sp)
 1080586:	d2e6                	sw	s9,100(sp)
 1080588:	d4ea                	sw	s10,104(sp)
 108058a:	d6ee                	sw	s11,108(sp)
 108058c:	d8f2                	sw	t3,112(sp)
 108058e:	daf6                	sw	t4,116(sp)
 1080590:	dcfa                	sw	t5,120(sp)
 1080592:	defe                	sw	t6,124(sp)
 1080594:	0005a103          	lw	sp,0(a1) # f0000000 <__etext+0x6ffe8550>
 1080598:	a009                	j	108059a <rt_hw_context_switch_exit>

0108059a <rt_hw_context_switch_exit>:
 108059a:	4502                	lw	a0,0(sp)
 108059c:	34151073          	csrw	mepc,a0
 10805a0:	4092                	lw	ra,4(sp)
 10805a2:	6289                	lui	t0,0x2
 10805a4:	80028293          	addi	t0,t0,-2048 # 1800 <__boot_header_length__+0x1770>
 10805a8:	30029073          	csrw	mstatus,t0
 10805ac:	4522                	lw	a0,8(sp)
 10805ae:	30052073          	csrs	mstatus,a0
 10805b2:	4242                	lw	tp,16(sp)
 10805b4:	42d2                	lw	t0,20(sp)
 10805b6:	4362                	lw	t1,24(sp)
 10805b8:	43f2                	lw	t2,28(sp)
 10805ba:	5402                	lw	s0,32(sp)
 10805bc:	5492                	lw	s1,36(sp)
 10805be:	5522                	lw	a0,40(sp)
 10805c0:	55b2                	lw	a1,44(sp)
 10805c2:	5642                	lw	a2,48(sp)
 10805c4:	56d2                	lw	a3,52(sp)
 10805c6:	5762                	lw	a4,56(sp)
 10805c8:	57f2                	lw	a5,60(sp)
 10805ca:	4806                	lw	a6,64(sp)
 10805cc:	4896                	lw	a7,68(sp)
 10805ce:	4926                	lw	s2,72(sp)
 10805d0:	49b6                	lw	s3,76(sp)
 10805d2:	4a46                	lw	s4,80(sp)
 10805d4:	4ad6                	lw	s5,84(sp)
 10805d6:	4b66                	lw	s6,88(sp)
 10805d8:	4bf6                	lw	s7,92(sp)
 10805da:	5c06                	lw	s8,96(sp)
 10805dc:	5c96                	lw	s9,100(sp)
 10805de:	5d26                	lw	s10,104(sp)
 10805e0:	5db6                	lw	s11,108(sp)
 10805e2:	5e46                	lw	t3,112(sp)
 10805e4:	5ed6                	lw	t4,116(sp)
 10805e6:	5f66                	lw	t5,120(sp)
 10805e8:	5ff6                	lw	t6,124(sp)
 10805ea:	6109                	addi	sp,sp,128
 10805ec:	30200073          	mret

010805f0 <rt_hw_do_after_save_above>:
 10805f0:	1171                	addi	sp,sp,-4
 10805f2:	c006                	sw	ra,0(sp)
 10805f4:	34202373          	csrr	t1,mcause
 10805f8:	3ff37313          	andi	t1,t1,1023
 10805fc:	00002397          	auipc	t2,0x2
 1080600:	e2e38393          	addi	t2,t2,-466 # 108242a <trap_entry>
 1080604:	9382                	jalr	t2
 1080606:	4082                	lw	ra,0(sp)
 1080608:	0111                	addi	sp,sp,4
 108060a:	8082                	ret

0108060c <rt_hw_stack_init>:
 108060c:	1141                	addi	sp,sp,-16
 108060e:	c622                	sw	s0,12(sp)
 1080610:	0800                	addi	s0,sp,16
 1080612:	88aa                	mv	a7,a0
 1080614:	0611                	addi	a2,a2,4
 1080616:	ffc67813          	andi	a6,a2,-4
 108061a:	f8080513          	addi	a0,a6,-128
 108061e:	4781                	li	a5,0
 1080620:	a811                	j	1080634 <rt_hw_stack_init+0x28>
 1080622:	00279713          	slli	a4,a5,0x2
 1080626:	972a                	add	a4,a4,a0
 1080628:	deadc637          	lui	a2,0xdeadc
 108062c:	eef60613          	addi	a2,a2,-273 # deadbeef <__etext+0x5eac443f>
 1080630:	c310                	sw	a2,0(a4)
 1080632:	0785                	addi	a5,a5,1
 1080634:	477d                	li	a4,31
 1080636:	fef776e3          	bgeu	a4,a5,1080622 <rt_hw_stack_init+0x16>
 108063a:	f8d82223          	sw	a3,-124(a6)
 108063e:	fab82423          	sw	a1,-88(a6)
 1080642:	f9182023          	sw	a7,-128(a6)
 1080646:	6789                	lui	a5,0x2
 1080648:	88078793          	addi	a5,a5,-1920 # 1880 <__boot_header_length__+0x17f0>
 108064c:	f8f82423          	sw	a5,-120(a6)
 1080650:	4432                	lw	s0,12(sp)
 1080652:	0141                	addi	sp,sp,16
 1080654:	8082                	ret

01080656 <rt_trigger_software_interrupt>:
 1080656:	1141                	addi	sp,sp,-16
 1080658:	c622                	sw	s0,12(sp)
 108065a:	0800                	addi	s0,sp,16
 108065c:	4432                	lw	s0,12(sp)
 108065e:	0141                	addi	sp,sp,16
 1080660:	8082                	ret
 1080662:	1141                	addi	sp,sp,-16
 1080664:	c622                	sw	s0,12(sp)
 1080666:	0800                	addi	s0,sp,16
 1080668:	a001                	j	1080668 <rt_trigger_software_interrupt+0x12>

0108066a <rt_hw_context_switch_interrupt>:
 108066a:	1141                	addi	sp,sp,-16
 108066c:	c606                	sw	ra,12(sp)
 108066e:	c422                	sw	s0,8(sp)
 1080670:	0800                	addi	s0,sp,16
 1080672:	0108e7b7          	lui	a5,0x108e
 1080676:	af87a783          	lw	a5,-1288(a5) # 108daf8 <rt_thread_switch_interrupt_flag>
 108067a:	e789                	bnez	a5,1080684 <rt_hw_context_switch_interrupt+0x1a>
 108067c:	0108e7b7          	lui	a5,0x108e
 1080680:	aea7a823          	sw	a0,-1296(a5) # 108daf0 <rt_interrupt_from_thread>
 1080684:	0108e7b7          	lui	a5,0x108e
 1080688:	aeb7aa23          	sw	a1,-1292(a5) # 108daf4 <rt_interrupt_to_thread>
 108068c:	0108e7b7          	lui	a5,0x108e
 1080690:	4705                	li	a4,1
 1080692:	aee7ac23          	sw	a4,-1288(a5) # 108daf8 <rt_thread_switch_interrupt_flag>
 1080696:	37c1                	jal	1080656 <rt_trigger_software_interrupt>
 1080698:	40b2                	lw	ra,12(sp)
 108069a:	4422                	lw	s0,8(sp)
 108069c:	0141                	addi	sp,sp,16
 108069e:	8082                	ret

010806a0 <SW_handler>:
 10806a0:	30047073          	csrci	mstatus,8
 10806a4:	7119                	addi	sp,sp,-128
 10806a6:	ca16                	sw	t0,20(sp)
 10806a8:	c206                	sw	ra,4(sp)
 10806aa:	08000293          	li	t0,128
 10806ae:	c416                	sw	t0,8(sp)
 10806b0:	c812                	sw	tp,16(sp)
 10806b2:	cc1a                	sw	t1,24(sp)
 10806b4:	ce1e                	sw	t2,28(sp)
 10806b6:	d022                	sw	s0,32(sp)
 10806b8:	d226                	sw	s1,36(sp)
 10806ba:	d42a                	sw	a0,40(sp)
 10806bc:	d62e                	sw	a1,44(sp)
 10806be:	d832                	sw	a2,48(sp)
 10806c0:	da36                	sw	a3,52(sp)
 10806c2:	dc3a                	sw	a4,56(sp)
 10806c4:	de3e                	sw	a5,60(sp)
 10806c6:	c0c2                	sw	a6,64(sp)
 10806c8:	c2c6                	sw	a7,68(sp)
 10806ca:	c4ca                	sw	s2,72(sp)
 10806cc:	c6ce                	sw	s3,76(sp)
 10806ce:	c8d2                	sw	s4,80(sp)
 10806d0:	cad6                	sw	s5,84(sp)
 10806d2:	ccda                	sw	s6,88(sp)
 10806d4:	cede                	sw	s7,92(sp)
 10806d6:	d0e2                	sw	s8,96(sp)
 10806d8:	d2e6                	sw	s9,100(sp)
 10806da:	d4ea                	sw	s10,104(sp)
 10806dc:	d6ee                	sw	s11,108(sp)
 10806de:	d8f2                	sw	t3,112(sp)
 10806e0:	daf6                	sw	t4,116(sp)
 10806e2:	dcfa                	sw	t5,120(sp)
 10806e4:	defe                	sw	t6,124(sp)
 10806e6:	34011173          	csrrw	sp,mscratch,sp
 10806ea:	2149                	jal	1080b6c <rt_interrupt_enter>
 10806ec:	f05ff0ef          	jal	ra,10805f0 <rt_hw_do_after_save_above>
 10806f0:	296d                	jal	1080baa <rt_interrupt_leave>
 10806f2:	34011173          	csrrw	sp,mscratch,sp
 10806f6:	0000d297          	auipc	t0,0xd
 10806fa:	40228293          	addi	t0,t0,1026 # 108daf8 <rt_thread_switch_interrupt_flag>
 10806fe:	0002a383          	lw	t2,0(t0)
 1080702:	02038a63          	beqz	t2,1080736 <SW_handler+0x96>
 1080706:	0002a023          	sw	zero,0(t0)
 108070a:	34102573          	csrr	a0,mepc
 108070e:	c02a                	sw	a0,0(sp)
 1080710:	0000d297          	auipc	t0,0xd
 1080714:	3e028293          	addi	t0,t0,992 # 108daf0 <rt_interrupt_from_thread>
 1080718:	0002a303          	lw	t1,0(t0)
 108071c:	00232023          	sw	sp,0(t1)
 1080720:	0000d297          	auipc	t0,0xd
 1080724:	3d428293          	addi	t0,t0,980 # 108daf4 <rt_interrupt_to_thread>
 1080728:	0002a303          	lw	t1,0(t0)
 108072c:	00032103          	lw	sp,0(t1)
 1080730:	4502                	lw	a0,0(sp)
 1080732:	34151073          	csrw	mepc,a0
 1080736:	4092                	lw	ra,4(sp)
 1080738:	6289                	lui	t0,0x2
 108073a:	80028293          	addi	t0,t0,-2048 # 1800 <__boot_header_length__+0x1770>
 108073e:	3002a073          	csrs	mstatus,t0
 1080742:	42a2                	lw	t0,8(sp)
 1080744:	3002a073          	csrs	mstatus,t0
 1080748:	4242                	lw	tp,16(sp)
 108074a:	42d2                	lw	t0,20(sp)
 108074c:	4362                	lw	t1,24(sp)
 108074e:	43f2                	lw	t2,28(sp)
 1080750:	5402                	lw	s0,32(sp)
 1080752:	5492                	lw	s1,36(sp)
 1080754:	5522                	lw	a0,40(sp)
 1080756:	55b2                	lw	a1,44(sp)
 1080758:	5642                	lw	a2,48(sp)
 108075a:	56d2                	lw	a3,52(sp)
 108075c:	5762                	lw	a4,56(sp)
 108075e:	57f2                	lw	a5,60(sp)
 1080760:	4806                	lw	a6,64(sp)
 1080762:	4896                	lw	a7,68(sp)
 1080764:	4926                	lw	s2,72(sp)
 1080766:	49b6                	lw	s3,76(sp)
 1080768:	4a46                	lw	s4,80(sp)
 108076a:	4ad6                	lw	s5,84(sp)
 108076c:	4b66                	lw	s6,88(sp)
 108076e:	4bf6                	lw	s7,92(sp)
 1080770:	5c06                	lw	s8,96(sp)
 1080772:	5c96                	lw	s9,100(sp)
 1080774:	5d26                	lw	s10,104(sp)
 1080776:	5db6                	lw	s11,108(sp)
 1080778:	5e46                	lw	t3,112(sp)
 108077a:	5ed6                	lw	t4,116(sp)
 108077c:	5f66                	lw	t5,120(sp)
 108077e:	5ff6                	lw	t6,124(sp)
 1080780:	6109                	addi	sp,sp,128
 1080782:	30200073          	mret
 1080786:	0000                	unimp
 1080788:	4e55                	li	t3,21
 108078a:	682d                	lui	a6,0xb
 108078c:	6e61                	lui	t3,0x18
 108078e:	6c64                	.2byte	0x6c64
 1080790:	6465                	lui	s0,0x19
 1080792:	6920                	.2byte	0x6920
 1080794:	746e                	.2byte	0x746e
 1080796:	7265                	lui	tp,0xffff9
 1080798:	7572                	.2byte	0x7572
 108079a:	7470                	.2byte	0x7470
 108079c:	2520                	.2byte	0x2520
 108079e:	2064                	.2byte	0x2064
 10807a0:	7563636f          	jal	t1,10b6ef6 <__global_pointer$+0x28bb6>
 10807a4:	7272                	.2byte	0x7272
 10807a6:	6465                	lui	s0,0x19
 10807a8:	2121                	jal	1080bb0 <rt_interrupt_leave+0x6>
 10807aa:	0a21                	addi	s4,s4,8
	...

010807ae <rt_hw_interrupt_handle>:
 10807ae:	1141                	addi	sp,sp,-16
 10807b0:	c606                	sw	ra,12(sp)
 10807b2:	c422                	sw	s0,8(sp)
 10807b4:	0800                	addi	s0,sp,16
 10807b6:	85aa                	mv	a1,a0
 10807b8:	01080537          	lui	a0,0x1080
 10807bc:	78850513          	addi	a0,a0,1928 # 1080788 <SW_handler+0xe8>
 10807c0:	1c2010ef          	jal	ra,1081982 <rt_kprintf>
 10807c4:	4501                	li	a0,0
 10807c6:	40b2                	lw	ra,12(sp)
 10807c8:	4422                	lw	s0,8(sp)
 10807ca:	0141                	addi	sp,sp,16
 10807cc:	8082                	ret

010807ce <rt_hw_interrupt_init>:
 10807ce:	1141                	addi	sp,sp,-16
 10807d0:	c622                	sw	s0,12(sp)
 10807d2:	0800                	addi	s0,sp,16
 10807d4:	4701                	li	a4,0
 10807d6:	a005                	j	10807f6 <rt_hw_interrupt_init+0x28>
 10807d8:	00371693          	slli	a3,a4,0x3
 10807dc:	0108c7b7          	lui	a5,0x108c
 10807e0:	3a878793          	addi	a5,a5,936 # 108c3a8 <rv32irq_table>
 10807e4:	97b6                	add	a5,a5,a3
 10807e6:	010806b7          	lui	a3,0x1080
 10807ea:	7ae68693          	addi	a3,a3,1966 # 10807ae <rt_hw_interrupt_handle>
 10807ee:	c394                	sw	a3,0(a5)
 10807f0:	0007a223          	sw	zero,4(a5)
 10807f4:	0705                	addi	a4,a4,1
 10807f6:	47fd                	li	a5,31
 10807f8:	fee7d0e3          	bge	a5,a4,10807d8 <rt_hw_interrupt_init+0xa>
 10807fc:	4432                	lw	s0,12(sp)
 10807fe:	0141                	addi	sp,sp,16
 1080800:	8082                	ret

01080802 <rt_hw_interrupt_install>:
 1080802:	1141                	addi	sp,sp,-16
 1080804:	c622                	sw	s0,12(sp)
 1080806:	0800                	addi	s0,sp,16
 1080808:	477d                	li	a4,31
 108080a:	02a74663          	blt	a4,a0,1080836 <rt_hw_interrupt_install+0x34>
 108080e:	00351693          	slli	a3,a0,0x3
 1080812:	0108c737          	lui	a4,0x108c
 1080816:	3a870713          	addi	a4,a4,936 # 108c3a8 <rv32irq_table>
 108081a:	9736                	add	a4,a4,a3
 108081c:	4308                	lw	a0,0(a4)
 108081e:	c989                	beqz	a1,1080830 <rt_hw_interrupt_install+0x2e>
 1080820:	0108c737          	lui	a4,0x108c
 1080824:	3a870713          	addi	a4,a4,936 # 108c3a8 <rv32irq_table>
 1080828:	00d707b3          	add	a5,a4,a3
 108082c:	c38c                	sw	a1,0(a5)
 108082e:	c3d0                	sw	a2,4(a5)
 1080830:	4432                	lw	s0,12(sp)
 1080832:	0141                	addi	sp,sp,16
 1080834:	8082                	ret
 1080836:	4501                	li	a0,0
 1080838:	bfe5                	j	1080830 <rt_hw_interrupt_install+0x2e>
 108083a:	0000                	unimp
 108083c:	63617453          	.4byte	0x63617453
 1080840:	7266206b          	.4byte	0x7266206b
 1080844:	6d61                	lui	s10,0x18
 1080846:	3a65                	jal	10801fe <__vector_ram_start__+0x1fe>
 1080848:	0a0d                	addi	s4,s4,3
 108084a:	2d2d                	jal	1080e84 <print_number+0x172>
 108084c:	2d2d                	jal	1080e86 <print_number+0x174>
 108084e:	2d2d                	jal	1080e88 <print_number+0x176>
 1080850:	2d2d                	jal	1080e8a <print_number+0x178>
 1080852:	2d2d                	jal	1080e8c <print_number+0x17a>
 1080854:	2d2d                	jal	1080e8e <print_number+0x17c>
 1080856:	2d2d                	jal	1080e90 <print_number+0x17e>
 1080858:	2d2d                	jal	1080e92 <print_number+0x180>
 108085a:	2d2d                	jal	1080e94 <print_number+0x182>
 108085c:	2d2d                	jal	1080e96 <print_number+0x184>
 108085e:	2d2d                	jal	1080e98 <print_number+0x186>
 1080860:	2d2d                	jal	1080e9a <print_number+0x188>
 1080862:	2d2d                	jal	1080e9c <print_number+0x18a>
 1080864:	2d2d                	jal	1080e9e <print_number+0x18c>
 1080866:	2d2d                	jal	1080ea0 <print_number+0x18e>
 1080868:	2d2d                	jal	1080ea2 <print_number+0x190>
 108086a:	2d2d                	jal	1080ea4 <print_number+0x192>
 108086c:	2d2d                	jal	1080ea6 <print_number+0x194>
 108086e:	2d2d                	jal	1080ea8 <print_number+0x196>
 1080870:	2d2d                	jal	1080eaa <print_number+0x198>
 1080872:	0a0d                	addi	s4,s4,3
 1080874:	0000                	unimp
 1080876:	0000                	unimp
 1080878:	6172                	.2byte	0x6172
 108087a:	2020                	.2byte	0x2020
 108087c:	2020                	.2byte	0x2020
 108087e:	2020                	.2byte	0x2020
 1080880:	203a                	.2byte	0x203a
 1080882:	7830                	.2byte	0x7830
 1080884:	3025                	jal	10800ac <__vector_ram_start__+0xac>
 1080886:	7838                	.2byte	0x7838
 1080888:	0a0d                	addi	s4,s4,3
 108088a:	0000                	unimp
 108088c:	736d                	lui	t1,0xffffb
 108088e:	6174                	.2byte	0x6174
 1080890:	7574                	.2byte	0x7574
 1080892:	203a2073          	csrs	0x203,s4
 1080896:	7830                	.2byte	0x7830
 1080898:	3025                	jal	10800c0 <__vector_ram_start__+0xc0>
 108089a:	7838                	.2byte	0x7838
 108089c:	0a0d                	addi	s4,s4,3
 108089e:	0000                	unimp
 10808a0:	3074                	.2byte	0x3074
 10808a2:	2020                	.2byte	0x2020
 10808a4:	2020                	.2byte	0x2020
 10808a6:	2020                	.2byte	0x2020
 10808a8:	203a                	.2byte	0x203a
 10808aa:	7830                	.2byte	0x7830
 10808ac:	3025                	jal	10800d4 <__vector_ram_start__+0xd4>
 10808ae:	7838                	.2byte	0x7838
 10808b0:	0a0d                	addi	s4,s4,3
 10808b2:	0000                	unimp
 10808b4:	3174                	.2byte	0x3174
 10808b6:	2020                	.2byte	0x2020
 10808b8:	2020                	.2byte	0x2020
 10808ba:	2020                	.2byte	0x2020
 10808bc:	203a                	.2byte	0x203a
 10808be:	7830                	.2byte	0x7830
 10808c0:	3025                	jal	10800e8 <__vector_ram_start__+0xe8>
 10808c2:	7838                	.2byte	0x7838
 10808c4:	0a0d                	addi	s4,s4,3
 10808c6:	0000                	unimp
 10808c8:	3274                	.2byte	0x3274
 10808ca:	2020                	.2byte	0x2020
 10808cc:	2020                	.2byte	0x2020
 10808ce:	2020                	.2byte	0x2020
 10808d0:	203a                	.2byte	0x203a
 10808d2:	7830                	.2byte	0x7830
 10808d4:	3025                	jal	10800fc <__vector_ram_start__+0xfc>
 10808d6:	7838                	.2byte	0x7838
 10808d8:	0a0d                	addi	s4,s4,3
 10808da:	0000                	unimp
 10808dc:	3061                	jal	1080164 <__vector_ram_start__+0x164>
 10808de:	2020                	.2byte	0x2020
 10808e0:	2020                	.2byte	0x2020
 10808e2:	2020                	.2byte	0x2020
 10808e4:	203a                	.2byte	0x203a
 10808e6:	7830                	.2byte	0x7830
 10808e8:	3025                	jal	1080110 <__vector_ram_start__+0x110>
 10808ea:	7838                	.2byte	0x7838
 10808ec:	0a0d                	addi	s4,s4,3
 10808ee:	0000                	unimp
 10808f0:	3161                	jal	1080578 <save_mpie+0x1e>
 10808f2:	2020                	.2byte	0x2020
 10808f4:	2020                	.2byte	0x2020
 10808f6:	2020                	.2byte	0x2020
 10808f8:	203a                	.2byte	0x203a
 10808fa:	7830                	.2byte	0x7830
 10808fc:	3025                	jal	1080124 <__vector_ram_start__+0x124>
 10808fe:	7838                	.2byte	0x7838
 1080900:	0a0d                	addi	s4,s4,3
 1080902:	0000                	unimp
 1080904:	3261                	jal	108028c <default_isr_87+0xa>
 1080906:	2020                	.2byte	0x2020
 1080908:	2020                	.2byte	0x2020
 108090a:	2020                	.2byte	0x2020
 108090c:	203a                	.2byte	0x203a
 108090e:	7830                	.2byte	0x7830
 1080910:	3025                	jal	1080138 <__vector_ram_start__+0x138>
 1080912:	7838                	.2byte	0x7838
 1080914:	0a0d                	addi	s4,s4,3
 1080916:	0000                	unimp
 1080918:	3361                	jal	10806a0 <SW_handler>
 108091a:	2020                	.2byte	0x2020
 108091c:	2020                	.2byte	0x2020
 108091e:	2020                	.2byte	0x2020
 1080920:	203a                	.2byte	0x203a
 1080922:	7830                	.2byte	0x7830
 1080924:	3025                	jal	108014c <__vector_ram_start__+0x14c>
 1080926:	7838                	.2byte	0x7838
 1080928:	0a0d                	addi	s4,s4,3
 108092a:	0000                	unimp
 108092c:	3461                	jal	10803b4 <gpiox_isr+0x18>
 108092e:	2020                	.2byte	0x2020
 1080930:	2020                	.2byte	0x2020
 1080932:	2020                	.2byte	0x2020
 1080934:	203a                	.2byte	0x203a
 1080936:	7830                	.2byte	0x7830
 1080938:	3025                	jal	1080160 <__vector_ram_start__+0x160>
 108093a:	7838                	.2byte	0x7838
 108093c:	0a0d                	addi	s4,s4,3
 108093e:	0000                	unimp
 1080940:	3561                	jal	10807c8 <rt_hw_interrupt_handle+0x1a>
 1080942:	2020                	.2byte	0x2020
 1080944:	2020                	.2byte	0x2020
 1080946:	2020                	.2byte	0x2020
 1080948:	203a                	.2byte	0x203a
 108094a:	7830                	.2byte	0x7830
 108094c:	3025                	jal	1080174 <__vector_ram_start__+0x174>
 108094e:	7838                	.2byte	0x7838
 1080950:	0a0d                	addi	s4,s4,3
 1080952:	0000                	unimp
 1080954:	3661                	jal	10804dc <board_timer_isr+0x2>
 1080956:	2020                	.2byte	0x2020
 1080958:	2020                	.2byte	0x2020
 108095a:	2020                	.2byte	0x2020
 108095c:	203a                	.2byte	0x203a
 108095e:	7830                	.2byte	0x7830
 1080960:	3025                	jal	1080188 <__vector_ram_start__+0x188>
 1080962:	7838                	.2byte	0x7838
 1080964:	0a0d                	addi	s4,s4,3
 1080966:	0000                	unimp
 1080968:	3761                	jal	10808f0 <rt_hw_interrupt_install+0xee>
 108096a:	2020                	.2byte	0x2020
 108096c:	2020                	.2byte	0x2020
 108096e:	2020                	.2byte	0x2020
 1080970:	203a                	.2byte	0x203a
 1080972:	7830                	.2byte	0x7830
 1080974:	3025                	jal	108019c <__vector_ram_start__+0x19c>
 1080976:	7838                	.2byte	0x7838
 1080978:	0a0d                	addi	s4,s4,3
 108097a:	0000                	unimp
 108097c:	3374                	.2byte	0x3374
 108097e:	2020                	.2byte	0x2020
 1080980:	2020                	.2byte	0x2020
 1080982:	2020                	.2byte	0x2020
 1080984:	203a                	.2byte	0x203a
 1080986:	7830                	.2byte	0x7830
 1080988:	3025                	jal	10801b0 <__vector_ram_start__+0x1b0>
 108098a:	7838                	.2byte	0x7838
 108098c:	0a0d                	addi	s4,s4,3
 108098e:	0000                	unimp
 1080990:	3474                	.2byte	0x3474
 1080992:	2020                	.2byte	0x2020
 1080994:	2020                	.2byte	0x2020
 1080996:	2020                	.2byte	0x2020
 1080998:	203a                	.2byte	0x203a
 108099a:	7830                	.2byte	0x7830
 108099c:	3025                	jal	10801c4 <__vector_ram_start__+0x1c4>
 108099e:	7838                	.2byte	0x7838
 10809a0:	0a0d                	addi	s4,s4,3
 10809a2:	0000                	unimp
 10809a4:	3574                	.2byte	0x3574
 10809a6:	2020                	.2byte	0x2020
 10809a8:	2020                	.2byte	0x2020
 10809aa:	2020                	.2byte	0x2020
 10809ac:	203a                	.2byte	0x203a
 10809ae:	7830                	.2byte	0x7830
 10809b0:	3025                	jal	10801d8 <__vector_ram_start__+0x1d8>
 10809b2:	7838                	.2byte	0x7838
 10809b4:	0a0d                	addi	s4,s4,3
 10809b6:	0000                	unimp
 10809b8:	3674                	.2byte	0x3674
 10809ba:	2020                	.2byte	0x2020
 10809bc:	2020                	.2byte	0x2020
 10809be:	2020                	.2byte	0x2020
 10809c0:	203a                	.2byte	0x203a
 10809c2:	7830                	.2byte	0x7830
 10809c4:	3025                	jal	10801ec <__vector_ram_start__+0x1ec>
 10809c6:	7838                	.2byte	0x7838
 10809c8:	0a0d                	addi	s4,s4,3
 10809ca:	0000                	unimp
 10809cc:	1141                	addi	sp,sp,-16
 10809ce:	c606                	sw	ra,12(sp)
 10809d0:	c422                	sw	s0,8(sp)
 10809d2:	c226                	sw	s1,4(sp)
 10809d4:	0800                	addi	s0,sp,16
 10809d6:	01081537          	lui	a0,0x1081
 10809da:	83c50513          	addi	a0,a0,-1988 # 108083c <rt_hw_interrupt_install+0x3a>
 10809de:	7a5000ef          	jal	ra,1081982 <rt_kprintf>
 10809e2:	0108e4b7          	lui	s1,0x108e
 10809e6:	afc48493          	addi	s1,s1,-1284 # 108dafc <s_stack_frame>
 10809ea:	409c                	lw	a5,0(s1)
 10809ec:	43cc                	lw	a1,4(a5)
 10809ee:	01081537          	lui	a0,0x1081
 10809f2:	87850513          	addi	a0,a0,-1928 # 1080878 <rt_hw_interrupt_install+0x76>
 10809f6:	78d000ef          	jal	ra,1081982 <rt_kprintf>
 10809fa:	300025f3          	csrr	a1,mstatus
 10809fe:	01081537          	lui	a0,0x1081
 1080a02:	88c50513          	addi	a0,a0,-1908 # 108088c <rt_hw_interrupt_install+0x8a>
 1080a06:	77d000ef          	jal	ra,1081982 <rt_kprintf>
 1080a0a:	409c                	lw	a5,0(s1)
 1080a0c:	4bcc                	lw	a1,20(a5)
 1080a0e:	01081537          	lui	a0,0x1081
 1080a12:	8a050513          	addi	a0,a0,-1888 # 10808a0 <rt_hw_interrupt_install+0x9e>
 1080a16:	76d000ef          	jal	ra,1081982 <rt_kprintf>
 1080a1a:	409c                	lw	a5,0(s1)
 1080a1c:	4f8c                	lw	a1,24(a5)
 1080a1e:	01081537          	lui	a0,0x1081
 1080a22:	8b450513          	addi	a0,a0,-1868 # 10808b4 <rt_hw_interrupt_install+0xb2>
 1080a26:	75d000ef          	jal	ra,1081982 <rt_kprintf>
 1080a2a:	409c                	lw	a5,0(s1)
 1080a2c:	4fcc                	lw	a1,28(a5)
 1080a2e:	01081537          	lui	a0,0x1081
 1080a32:	8c850513          	addi	a0,a0,-1848 # 10808c8 <rt_hw_interrupt_install+0xc6>
 1080a36:	74d000ef          	jal	ra,1081982 <rt_kprintf>
 1080a3a:	409c                	lw	a5,0(s1)
 1080a3c:	578c                	lw	a1,40(a5)
 1080a3e:	01081537          	lui	a0,0x1081
 1080a42:	8dc50513          	addi	a0,a0,-1828 # 10808dc <rt_hw_interrupt_install+0xda>
 1080a46:	73d000ef          	jal	ra,1081982 <rt_kprintf>
 1080a4a:	409c                	lw	a5,0(s1)
 1080a4c:	57cc                	lw	a1,44(a5)
 1080a4e:	01081537          	lui	a0,0x1081
 1080a52:	8f050513          	addi	a0,a0,-1808 # 10808f0 <rt_hw_interrupt_install+0xee>
 1080a56:	72d000ef          	jal	ra,1081982 <rt_kprintf>
 1080a5a:	409c                	lw	a5,0(s1)
 1080a5c:	5b8c                	lw	a1,48(a5)
 1080a5e:	01081537          	lui	a0,0x1081
 1080a62:	90450513          	addi	a0,a0,-1788 # 1080904 <rt_hw_interrupt_install+0x102>
 1080a66:	71d000ef          	jal	ra,1081982 <rt_kprintf>
 1080a6a:	409c                	lw	a5,0(s1)
 1080a6c:	5bcc                	lw	a1,52(a5)
 1080a6e:	01081537          	lui	a0,0x1081
 1080a72:	91850513          	addi	a0,a0,-1768 # 1080918 <rt_hw_interrupt_install+0x116>
 1080a76:	70d000ef          	jal	ra,1081982 <rt_kprintf>
 1080a7a:	409c                	lw	a5,0(s1)
 1080a7c:	5f8c                	lw	a1,56(a5)
 1080a7e:	01081537          	lui	a0,0x1081
 1080a82:	92c50513          	addi	a0,a0,-1748 # 108092c <rt_hw_interrupt_install+0x12a>
 1080a86:	6fd000ef          	jal	ra,1081982 <rt_kprintf>
 1080a8a:	409c                	lw	a5,0(s1)
 1080a8c:	5fcc                	lw	a1,60(a5)
 1080a8e:	01081537          	lui	a0,0x1081
 1080a92:	94050513          	addi	a0,a0,-1728 # 1080940 <rt_hw_interrupt_install+0x13e>
 1080a96:	6ed000ef          	jal	ra,1081982 <rt_kprintf>
 1080a9a:	409c                	lw	a5,0(s1)
 1080a9c:	43ac                	lw	a1,64(a5)
 1080a9e:	01081537          	lui	a0,0x1081
 1080aa2:	95450513          	addi	a0,a0,-1708 # 1080954 <rt_hw_interrupt_install+0x152>
 1080aa6:	6dd000ef          	jal	ra,1081982 <rt_kprintf>
 1080aaa:	409c                	lw	a5,0(s1)
 1080aac:	43ec                	lw	a1,68(a5)
 1080aae:	01081537          	lui	a0,0x1081
 1080ab2:	96850513          	addi	a0,a0,-1688 # 1080968 <rt_hw_interrupt_install+0x166>
 1080ab6:	6cd000ef          	jal	ra,1081982 <rt_kprintf>
 1080aba:	409c                	lw	a5,0(s1)
 1080abc:	5bac                	lw	a1,112(a5)
 1080abe:	01081537          	lui	a0,0x1081
 1080ac2:	97c50513          	addi	a0,a0,-1668 # 108097c <rt_hw_interrupt_install+0x17a>
 1080ac6:	6bd000ef          	jal	ra,1081982 <rt_kprintf>
 1080aca:	409c                	lw	a5,0(s1)
 1080acc:	5bec                	lw	a1,116(a5)
 1080ace:	01081537          	lui	a0,0x1081
 1080ad2:	99050513          	addi	a0,a0,-1648 # 1080990 <rt_hw_interrupt_install+0x18e>
 1080ad6:	6ad000ef          	jal	ra,1081982 <rt_kprintf>
 1080ada:	409c                	lw	a5,0(s1)
 1080adc:	5fac                	lw	a1,120(a5)
 1080ade:	01081537          	lui	a0,0x1081
 1080ae2:	9a450513          	addi	a0,a0,-1628 # 10809a4 <rt_hw_interrupt_install+0x1a2>
 1080ae6:	69d000ef          	jal	ra,1081982 <rt_kprintf>
 1080aea:	409c                	lw	a5,0(s1)
 1080aec:	5fec                	lw	a1,124(a5)
 1080aee:	01081537          	lui	a0,0x1081
 1080af2:	9b850513          	addi	a0,a0,-1608 # 10809b8 <rt_hw_interrupt_install+0x1b6>
 1080af6:	68d000ef          	jal	ra,1081982 <rt_kprintf>
 1080afa:	40b2                	lw	ra,12(sp)
 1080afc:	4422                	lw	s0,8(sp)
 1080afe:	4492                	lw	s1,4(sp)
 1080b00:	0141                	addi	sp,sp,16
 1080b02:	8082                	ret

01080b04 <rt_rv32_system_irq_handler>:
 1080b04:	1141                	addi	sp,sp,-16
 1080b06:	c606                	sw	ra,12(sp)
 1080b08:	c422                	sw	s0,8(sp)
 1080b0a:	0800                	addi	s0,sp,16
 1080b0c:	34002773          	csrr	a4,mscratch
 1080b10:	02055163          	bgez	a0,1080b32 <rt_rv32_system_irq_handler+0x2e>
 1080b14:	897d                	andi	a0,a0,31
 1080b16:	00351713          	slli	a4,a0,0x3
 1080b1a:	0108c7b7          	lui	a5,0x108c
 1080b1e:	3a878793          	addi	a5,a5,936 # 108c3a8 <rv32irq_table>
 1080b22:	97ba                	add	a5,a5,a4
 1080b24:	4398                	lw	a4,0(a5)
 1080b26:	43cc                	lw	a1,4(a5)
 1080b28:	9702                	jalr	a4
 1080b2a:	40b2                	lw	ra,12(sp)
 1080b2c:	4422                	lw	s0,8(sp)
 1080b2e:	0141                	addi	sp,sp,16
 1080b30:	8082                	ret
 1080b32:	0108e7b7          	lui	a5,0x108e
 1080b36:	aee7ae23          	sw	a4,-1284(a5) # 108dafc <s_stack_frame>
 1080b3a:	7ef8c097          	auipc	ra,0x7ef8c
 1080b3e:	b90080e7          	jalr	-1136(ra) # 8000c6ca <rt_show_stack_frame>
 1080b42:	b7e5                	j	1080b2a <rt_rv32_system_irq_handler+0x26>

01080b44 <rt_interrupt_enter_sethook>:
 1080b44:	1141                	addi	sp,sp,-16
 1080b46:	c622                	sw	s0,12(sp)
 1080b48:	0800                	addi	s0,sp,16
 1080b4a:	0108e7b7          	lui	a5,0x108e
 1080b4e:	a6a7a823          	sw	a0,-1424(a5) # 108da70 <rt_interrupt_enter_hook>
 1080b52:	4432                	lw	s0,12(sp)
 1080b54:	0141                	addi	sp,sp,16
 1080b56:	8082                	ret

01080b58 <rt_interrupt_leave_sethook>:
 1080b58:	1141                	addi	sp,sp,-16
 1080b5a:	c622                	sw	s0,12(sp)
 1080b5c:	0800                	addi	s0,sp,16
 1080b5e:	0108e7b7          	lui	a5,0x108e
 1080b62:	a6a7aa23          	sw	a0,-1420(a5) # 108da74 <rt_interrupt_leave_hook>
 1080b66:	4432                	lw	s0,12(sp)
 1080b68:	0141                	addi	sp,sp,16
 1080b6a:	8082                	ret

01080b6c <rt_interrupt_enter>:
 1080b6c:	1141                	addi	sp,sp,-16
 1080b6e:	c606                	sw	ra,12(sp)
 1080b70:	c422                	sw	s0,8(sp)
 1080b72:	c226                	sw	s1,4(sp)
 1080b74:	0800                	addi	s0,sp,16
 1080b76:	326d                	jal	1080520 <__ramfunc_start__>
 1080b78:	84aa                	mv	s1,a0
 1080b7a:	0108e737          	lui	a4,0x108e
 1080b7e:	a7870713          	addi	a4,a4,-1416 # 108da78 <rt_interrupt_nest>
 1080b82:	00074783          	lbu	a5,0(a4)
 1080b86:	0785                	addi	a5,a5,1
 1080b88:	0ff7f793          	zext.b	a5,a5
 1080b8c:	00f70023          	sb	a5,0(a4)
 1080b90:	0108e7b7          	lui	a5,0x108e
 1080b94:	a707a783          	lw	a5,-1424(a5) # 108da70 <rt_interrupt_enter_hook>
 1080b98:	c391                	beqz	a5,1080b9c <rt_interrupt_enter+0x30>
 1080b9a:	9782                	jalr	a5
 1080b9c:	8526                	mv	a0,s1
 1080b9e:	3261                	jal	1080526 <rt_hw_interrupt_enable>
 1080ba0:	40b2                	lw	ra,12(sp)
 1080ba2:	4422                	lw	s0,8(sp)
 1080ba4:	4492                	lw	s1,4(sp)
 1080ba6:	0141                	addi	sp,sp,16
 1080ba8:	8082                	ret

01080baa <rt_interrupt_leave>:
 1080baa:	1141                	addi	sp,sp,-16
 1080bac:	c606                	sw	ra,12(sp)
 1080bae:	c422                	sw	s0,8(sp)
 1080bb0:	c226                	sw	s1,4(sp)
 1080bb2:	0800                	addi	s0,sp,16
 1080bb4:	32b5                	jal	1080520 <__ramfunc_start__>
 1080bb6:	84aa                	mv	s1,a0
 1080bb8:	0108e7b7          	lui	a5,0x108e
 1080bbc:	a747a783          	lw	a5,-1420(a5) # 108da74 <rt_interrupt_leave_hook>
 1080bc0:	c391                	beqz	a5,1080bc4 <rt_interrupt_leave+0x1a>
 1080bc2:	9782                	jalr	a5
 1080bc4:	0108e737          	lui	a4,0x108e
 1080bc8:	a7870713          	addi	a4,a4,-1416 # 108da78 <rt_interrupt_nest>
 1080bcc:	00074783          	lbu	a5,0(a4)
 1080bd0:	17fd                	addi	a5,a5,-1
 1080bd2:	0ff7f793          	zext.b	a5,a5
 1080bd6:	00f70023          	sb	a5,0(a4)
 1080bda:	8526                	mv	a0,s1
 1080bdc:	32a9                	jal	1080526 <rt_hw_interrupt_enable>
 1080bde:	40b2                	lw	ra,12(sp)
 1080be0:	4422                	lw	s0,8(sp)
 1080be2:	4492                	lw	s1,4(sp)
 1080be4:	0141                	addi	sp,sp,16
 1080be6:	8082                	ret

01080be8 <rt_interrupt_get_nest>:
 1080be8:	1141                	addi	sp,sp,-16
 1080bea:	c606                	sw	ra,12(sp)
 1080bec:	c422                	sw	s0,8(sp)
 1080bee:	c226                	sw	s1,4(sp)
 1080bf0:	0800                	addi	s0,sp,16
 1080bf2:	323d                	jal	1080520 <__ramfunc_start__>
 1080bf4:	0108e7b7          	lui	a5,0x108e
 1080bf8:	a787c483          	lbu	s1,-1416(a5) # 108da78 <rt_interrupt_nest>
 1080bfc:	0ff4f493          	zext.b	s1,s1
 1080c00:	321d                	jal	1080526 <rt_hw_interrupt_enable>
 1080c02:	8526                	mv	a0,s1
 1080c04:	40b2                	lw	ra,12(sp)
 1080c06:	4422                	lw	s0,8(sp)
 1080c08:	4492                	lw	s1,4(sp)
 1080c0a:	0141                	addi	sp,sp,16
 1080c0c:	8082                	ret

01080c0e <rt_hw_interrupt_is_disabled>:
 1080c0e:	1141                	addi	sp,sp,-16
 1080c10:	c622                	sw	s0,12(sp)
 1080c12:	0800                	addi	s0,sp,16
 1080c14:	4501                	li	a0,0
 1080c16:	4432                	lw	s0,12(sp)
 1080c18:	0141                	addi	sp,sp,16
 1080c1a:	8082                	ret

01080c1c <rt_tick_sethook>:
 1080c1c:	1141                	addi	sp,sp,-16
 1080c1e:	c622                	sw	s0,12(sp)
 1080c20:	0800                	addi	s0,sp,16
 1080c22:	0108e7b7          	lui	a5,0x108e
 1080c26:	a6a7a623          	sw	a0,-1428(a5) # 108da6c <rt_tick_hook>
 1080c2a:	4432                	lw	s0,12(sp)
 1080c2c:	0141                	addi	sp,sp,16
 1080c2e:	8082                	ret

01080c30 <rt_tick_get>:
 1080c30:	1141                	addi	sp,sp,-16
 1080c32:	c622                	sw	s0,12(sp)
 1080c34:	0800                	addi	s0,sp,16
 1080c36:	0108e7b7          	lui	a5,0x108e
 1080c3a:	a687a503          	lw	a0,-1432(a5) # 108da68 <rt_tick>
 1080c3e:	4432                	lw	s0,12(sp)
 1080c40:	0141                	addi	sp,sp,16
 1080c42:	8082                	ret

01080c44 <rt_tick_set>:
 1080c44:	1141                	addi	sp,sp,-16
 1080c46:	c606                	sw	ra,12(sp)
 1080c48:	c422                	sw	s0,8(sp)
 1080c4a:	c226                	sw	s1,4(sp)
 1080c4c:	0800                	addi	s0,sp,16
 1080c4e:	84aa                	mv	s1,a0
 1080c50:	38c1                	jal	1080520 <__ramfunc_start__>
 1080c52:	0108e7b7          	lui	a5,0x108e
 1080c56:	a697a423          	sw	s1,-1432(a5) # 108da68 <rt_tick>
 1080c5a:	30f1                	jal	1080526 <rt_hw_interrupt_enable>
 1080c5c:	40b2                	lw	ra,12(sp)
 1080c5e:	4422                	lw	s0,8(sp)
 1080c60:	4492                	lw	s1,4(sp)
 1080c62:	0141                	addi	sp,sp,16
 1080c64:	8082                	ret

01080c66 <rt_tick_increase>:
 1080c66:	1141                	addi	sp,sp,-16
 1080c68:	c606                	sw	ra,12(sp)
 1080c6a:	c422                	sw	s0,8(sp)
 1080c6c:	c226                	sw	s1,4(sp)
 1080c6e:	0800                	addi	s0,sp,16
 1080c70:	0108e7b7          	lui	a5,0x108e
 1080c74:	a6c7a783          	lw	a5,-1428(a5) # 108da6c <rt_tick_hook>
 1080c78:	c391                	beqz	a5,1080c7c <rt_tick_increase+0x16>
 1080c7a:	9782                	jalr	a5
 1080c7c:	3055                	jal	1080520 <__ramfunc_start__>
 1080c7e:	84aa                	mv	s1,a0
 1080c80:	0108e7b7          	lui	a5,0x108e
 1080c84:	a6878793          	addi	a5,a5,-1432 # 108da68 <rt_tick>
 1080c88:	4398                	lw	a4,0(a5)
 1080c8a:	0705                	addi	a4,a4,1
 1080c8c:	c398                	sw	a4,0(a5)
 1080c8e:	5db050ef          	jal	ra,1086a68 <rt_thread_self>
 1080c92:	497c                	lw	a5,84(a0)
 1080c94:	17fd                	addi	a5,a5,-1
 1080c96:	c97c                	sw	a5,84(a0)
 1080c98:	e79d                	bnez	a5,1080cc6 <rt_tick_increase+0x60>
 1080c9a:	493c                	lw	a5,80(a0)
 1080c9c:	c97c                	sw	a5,84(a0)
 1080c9e:	03454783          	lbu	a5,52(a0)
 1080ca2:	0087e793          	ori	a5,a5,8
 1080ca6:	02f50a23          	sb	a5,52(a0)
 1080caa:	8526                	mv	a0,s1
 1080cac:	87bff0ef          	jal	ra,1080526 <rt_hw_interrupt_enable>
 1080cb0:	7ef86097          	auipc	ra,0x7ef86
 1080cb4:	f2a080e7          	jalr	-214(ra) # 80006bda <rt_schedule>
 1080cb8:	71c070ef          	jal	ra,10883d4 <rt_timer_check>
 1080cbc:	40b2                	lw	ra,12(sp)
 1080cbe:	4422                	lw	s0,8(sp)
 1080cc0:	4492                	lw	s1,4(sp)
 1080cc2:	0141                	addi	sp,sp,16
 1080cc4:	8082                	ret
 1080cc6:	8526                	mv	a0,s1
 1080cc8:	85fff0ef          	jal	ra,1080526 <rt_hw_interrupt_enable>
 1080ccc:	b7f5                	j	1080cb8 <rt_tick_increase+0x52>

01080cce <rt_tick_from_millisecond>:
 1080cce:	1141                	addi	sp,sp,-16
 1080cd0:	c622                	sw	s0,12(sp)
 1080cd2:	0800                	addi	s0,sp,16
 1080cd4:	02054463          	bltz	a0,1080cfc <rt_tick_from_millisecond+0x2e>
 1080cd8:	3e800793          	li	a5,1000
 1080cdc:	02f54733          	div	a4,a0,a5
 1080ce0:	02f70733          	mul	a4,a4,a5
 1080ce4:	02f56533          	rem	a0,a0,a5
 1080ce8:	02f50533          	mul	a0,a0,a5
 1080cec:	3e750513          	addi	a0,a0,999
 1080cf0:	02f54533          	div	a0,a0,a5
 1080cf4:	953a                	add	a0,a0,a4
 1080cf6:	4432                	lw	s0,12(sp)
 1080cf8:	0141                	addi	sp,sp,16
 1080cfa:	8082                	ret
 1080cfc:	557d                	li	a0,-1
 1080cfe:	bfe5                	j	1080cf6 <rt_tick_from_millisecond+0x28>

01080d00 <rt_tick_get_millisecond>:
 1080d00:	1141                	addi	sp,sp,-16
 1080d02:	c606                	sw	ra,12(sp)
 1080d04:	c422                	sw	s0,8(sp)
 1080d06:	0800                	addi	s0,sp,16
 1080d08:	3725                	jal	1080c30 <rt_tick_get>
 1080d0a:	40b2                	lw	ra,12(sp)
 1080d0c:	4422                	lw	s0,8(sp)
 1080d0e:	0141                	addi	sp,sp,16
 1080d10:	8082                	ret

01080d12 <print_number>:
 1080d12:	7179                	addi	sp,sp,-48
 1080d14:	d622                	sw	s0,44(sp)
 1080d16:	1800                	addi	s0,sp,48
 1080d18:	01082337          	lui	t1,0x1082
 1080d1c:	21035303          	lhu	t1,528(t1) # 1082210 <rt_memory_info+0x112>
 1080d20:	fc641823          	sh	t1,-48(s0) # 18fd0 <__fw_size__+0x4098>
 1080d24:	fc041923          	sh	zero,-46(s0)
 1080d28:	fc041a23          	sh	zero,-44(s0)
 1080d2c:	fc041b23          	sh	zero,-42(s0)
 1080d30:	fc041c23          	sh	zero,-40(s0)
 1080d34:	fc041d23          	sh	zero,-38(s0)
 1080d38:	fc041e23          	sh	zero,-36(s0)
 1080d3c:	fc041f23          	sh	zero,-34(s0)
 1080d40:	fe041023          	sh	zero,-32(s0)
 1080d44:	fe041123          	sh	zero,-30(s0)
 1080d48:	fe041223          	sh	zero,-28(s0)
 1080d4c:	fe041323          	sh	zero,-26(s0)
 1080d50:	fe041423          	sh	zero,-24(s0)
 1080d54:	fe041523          	sh	zero,-22(s0)
 1080d58:	fe041623          	sh	zero,-20(s0)
 1080d5c:	fe041723          	sh	zero,-18(s0)
 1080d60:	0408f313          	andi	t1,a7,64
 1080d64:	04030963          	beqz	t1,1080db6 <print_number+0xa4>
 1080d68:	01082eb7          	lui	t4,0x1082
 1080d6c:	368e8e93          	addi	t4,t4,872 # 1082368 <large_digits.4>
 1080d70:	0108f313          	andi	t1,a7,16
 1080d74:	00030463          	beqz	t1,1080d7c <print_number+0x6a>
 1080d78:	ffe8f893          	andi	a7,a7,-2
 1080d7c:	0018f313          	andi	t1,a7,1
 1080d80:	04030063          	beqz	t1,1080dc0 <print_number+0xae>
 1080d84:	03000293          	li	t0,48
 1080d88:	0028f313          	andi	t1,a7,2
 1080d8c:	06030763          	beqz	t1,1080dfa <print_number+0xe8>
 1080d90:	06800313          	li	t1,104
 1080d94:	02670963          	beq	a4,t1,1080dc6 <print_number+0xb4>
 1080d98:	06c00313          	li	t1,108
 1080d9c:	04670863          	beq	a4,t1,1080dec <print_number+0xda>
 1080da0:	04c00313          	li	t1,76
 1080da4:	04670463          	beq	a4,t1,1080dec <print_number+0xda>
 1080da8:	02065363          	bgez	a2,1080dce <print_number+0xbc>
 1080dac:	40c00633          	neg	a2,a2
 1080db0:	02d00f93          	li	t6,45
 1080db4:	a0a1                	j	1080dfc <print_number+0xea>
 1080db6:	01082eb7          	lui	t4,0x1082
 1080dba:	3f4e8e93          	addi	t4,t4,1012 # 10823f4 <small_digits.3>
 1080dbe:	bf4d                	j	1080d70 <print_number+0x5e>
 1080dc0:	02000293          	li	t0,32
 1080dc4:	b7d1                	j	1080d88 <print_number+0x76>
 1080dc6:	01061713          	slli	a4,a2,0x10
 1080dca:	00074a63          	bltz	a4,1080dde <print_number+0xcc>
 1080dce:	0048f713          	andi	a4,a7,4
 1080dd2:	e721                	bnez	a4,1080e1a <print_number+0x108>
 1080dd4:	0088f713          	andi	a4,a7,8
 1080dd8:	e721                	bnez	a4,1080e20 <print_number+0x10e>
 1080dda:	4f81                	li	t6,0
 1080ddc:	a005                	j	1080dfc <print_number+0xea>
 1080dde:	40c00633          	neg	a2,a2
 1080de2:	0642                	slli	a2,a2,0x10
 1080de4:	8241                	srli	a2,a2,0x10
 1080de6:	02d00f93          	li	t6,45
 1080dea:	a809                	j	1080dfc <print_number+0xea>
 1080dec:	fe0651e3          	bgez	a2,1080dce <print_number+0xbc>
 1080df0:	40c00633          	neg	a2,a2
 1080df4:	02d00f93          	li	t6,45
 1080df8:	a011                	j	1080dfc <print_number+0xea>
 1080dfa:	4f81                	li	t6,0
 1080dfc:	0208ff13          	andi	t5,a7,32
 1080e00:	020f0463          	beqz	t5,1080e28 <print_number+0x116>
 1080e04:	4709                	li	a4,2
 1080e06:	02e68063          	beq	a3,a4,1080e26 <print_number+0x114>
 1080e0a:	4741                	li	a4,16
 1080e0c:	00e68d63          	beq	a3,a4,1080e26 <print_number+0x114>
 1080e10:	4721                	li	a4,8
 1080e12:	00e69b63          	bne	a3,a4,1080e28 <print_number+0x116>
 1080e16:	17fd                	addi	a5,a5,-1
 1080e18:	a801                	j	1080e28 <print_number+0x116>
 1080e1a:	02b00f93          	li	t6,43
 1080e1e:	bff9                	j	1080dfc <print_number+0xea>
 1080e20:	02000f93          	li	t6,32
 1080e24:	bfe1                	j	1080dfc <print_number+0xea>
 1080e26:	17f9                	addi	a5,a5,-2
 1080e28:	e621                	bnez	a2,1080e70 <print_number+0x15e>
 1080e2a:	03000713          	li	a4,48
 1080e2e:	fce40823          	sb	a4,-48(s0)
 1080e32:	4705                	li	a4,1
 1080e34:	04e84063          	blt	a6,a4,1080e74 <print_number+0x162>
 1080e38:	8642                	mv	a2,a6
 1080e3a:	8f91                	sub	a5,a5,a2
 1080e3c:	0118f313          	andi	t1,a7,17
 1080e40:	04031963          	bnez	t1,1080e92 <print_number+0x180>
 1080e44:	000f8563          	beqz	t6,1080e4e <print_number+0x13c>
 1080e48:	00f05363          	blez	a5,1080e4e <print_number+0x13c>
 1080e4c:	17fd                	addi	a5,a5,-1
 1080e4e:	833e                	mv	t1,a5
 1080e50:	a035                	j	1080e7c <print_number+0x16a>
 1080e52:	02d67333          	remu	t1,a2,a3
 1080e56:	02d65633          	divu	a2,a2,a3
 1080e5a:	9376                	add	t1,t1,t4
 1080e5c:	00030e03          	lb	t3,0(t1)
 1080e60:	ff070313          	addi	t1,a4,-16
 1080e64:	9322                	add	t1,t1,s0
 1080e66:	ffc30023          	sb	t3,-32(t1)
 1080e6a:	0705                	addi	a4,a4,1
 1080e6c:	f27d                	bnez	a2,1080e52 <print_number+0x140>
 1080e6e:	b7d9                	j	1080e34 <print_number+0x122>
 1080e70:	4701                	li	a4,0
 1080e72:	bfed                	j	1080e6c <print_number+0x15a>
 1080e74:	863a                	mv	a2,a4
 1080e76:	b7d1                	j	1080e3a <print_number+0x128>
 1080e78:	0505                	addi	a0,a0,1
 1080e7a:	833e                	mv	t1,a5
 1080e7c:	fff30793          	addi	a5,t1,-1
 1080e80:	00605963          	blez	t1,1080e92 <print_number+0x180>
 1080e84:	feb57ae3          	bgeu	a0,a1,1080e78 <print_number+0x166>
 1080e88:	02000313          	li	t1,32
 1080e8c:	00650023          	sb	t1,0(a0)
 1080e90:	b7e5                	j	1080e78 <print_number+0x166>
 1080e92:	000f8863          	beqz	t6,1080ea2 <print_number+0x190>
 1080e96:	00b57463          	bgeu	a0,a1,1080e9e <print_number+0x18c>
 1080e9a:	01f50023          	sb	t6,0(a0)
 1080e9e:	17fd                	addi	a5,a5,-1
 1080ea0:	0505                	addi	a0,a0,1
 1080ea2:	040f0d63          	beqz	t5,1080efc <print_number+0x1ea>
 1080ea6:	4309                	li	t1,2
 1080ea8:	02668b63          	beq	a3,t1,1080ede <print_number+0x1cc>
 1080eac:	4321                	li	t1,8
 1080eae:	04668d63          	beq	a3,t1,1080f08 <print_number+0x1f6>
 1080eb2:	4341                	li	t1,16
 1080eb4:	04669463          	bne	a3,t1,1080efc <print_number+0x1ea>
 1080eb8:	00b57663          	bgeu	a0,a1,1080ec4 <print_number+0x1b2>
 1080ebc:	03000693          	li	a3,48
 1080ec0:	00d50023          	sb	a3,0(a0)
 1080ec4:	00150693          	addi	a3,a0,1
 1080ec8:	00b6f963          	bgeu	a3,a1,1080eda <print_number+0x1c8>
 1080ecc:	0408f693          	andi	a3,a7,64
 1080ed0:	c6a1                	beqz	a3,1080f18 <print_number+0x206>
 1080ed2:	05800693          	li	a3,88
 1080ed6:	00d500a3          	sb	a3,1(a0)
 1080eda:	0509                	addi	a0,a0,2
 1080edc:	a005                	j	1080efc <print_number+0x1ea>
 1080ede:	00b57663          	bgeu	a0,a1,1080eea <print_number+0x1d8>
 1080ee2:	03000693          	li	a3,48
 1080ee6:	00d50023          	sb	a3,0(a0)
 1080eea:	00150693          	addi	a3,a0,1
 1080eee:	00b6f663          	bgeu	a3,a1,1080efa <print_number+0x1e8>
 1080ef2:	06200693          	li	a3,98
 1080ef6:	00d500a3          	sb	a3,1(a0)
 1080efa:	0509                	addi	a0,a0,2
 1080efc:	0108f893          	andi	a7,a7,16
 1080f00:	02088163          	beqz	a7,1080f22 <print_number+0x210>
 1080f04:	86be                	mv	a3,a5
 1080f06:	a80d                	j	1080f38 <print_number+0x226>
 1080f08:	00b57663          	bgeu	a0,a1,1080f14 <print_number+0x202>
 1080f0c:	03000693          	li	a3,48
 1080f10:	00d50023          	sb	a3,0(a0)
 1080f14:	0505                	addi	a0,a0,1
 1080f16:	b7dd                	j	1080efc <print_number+0x1ea>
 1080f18:	07800693          	li	a3,120
 1080f1c:	bf6d                	j	1080ed6 <print_number+0x1c4>
 1080f1e:	0505                	addi	a0,a0,1
 1080f20:	87b6                	mv	a5,a3
 1080f22:	fff78693          	addi	a3,a5,-1
 1080f26:	00f05963          	blez	a5,1080f38 <print_number+0x226>
 1080f2a:	feb57ae3          	bgeu	a0,a1,1080f1e <print_number+0x20c>
 1080f2e:	00550023          	sb	t0,0(a0)
 1080f32:	b7f5                	j	1080f1e <print_number+0x20c>
 1080f34:	0505                	addi	a0,a0,1
 1080f36:	863e                	mv	a2,a5
 1080f38:	fff60793          	addi	a5,a2,-1
 1080f3c:	00c75b63          	bge	a4,a2,1080f52 <print_number+0x240>
 1080f40:	feb57ae3          	bgeu	a0,a1,1080f34 <print_number+0x222>
 1080f44:	03000613          	li	a2,48
 1080f48:	00c50023          	sb	a2,0(a0)
 1080f4c:	b7e5                	j	1080f34 <print_number+0x222>
 1080f4e:	0505                	addi	a0,a0,1
 1080f50:	873e                	mv	a4,a5
 1080f52:	fff70793          	addi	a5,a4,-1
 1080f56:	02e05063          	blez	a4,1080f76 <print_number+0x264>
 1080f5a:	00080e63          	beqz	a6,1080f76 <print_number+0x264>
 1080f5e:	feb578e3          	bgeu	a0,a1,1080f4e <print_number+0x23c>
 1080f62:	ff078713          	addi	a4,a5,-16
 1080f66:	9722                	add	a4,a4,s0
 1080f68:	fe070703          	lb	a4,-32(a4)
 1080f6c:	00e50023          	sb	a4,0(a0)
 1080f70:	bff9                	j	1080f4e <print_number+0x23c>
 1080f72:	0505                	addi	a0,a0,1
 1080f74:	86be                	mv	a3,a5
 1080f76:	fff68793          	addi	a5,a3,-1
 1080f7a:	00d05963          	blez	a3,1080f8c <print_number+0x27a>
 1080f7e:	feb57ae3          	bgeu	a0,a1,1080f72 <print_number+0x260>
 1080f82:	02000713          	li	a4,32
 1080f86:	00e50023          	sb	a4,0(a0)
 1080f8a:	b7e5                	j	1080f72 <print_number+0x260>
 1080f8c:	5432                	lw	s0,44(sp)
 1080f8e:	6145                	addi	sp,sp,48
 1080f90:	8082                	ret
 1080f92:	0000                	unimp
 1080f94:	6e75                	lui	t3,0x1d
 1080f96:	776f6e6b          	.4byte	0x776f6e6b
 1080f9a:	006e                	c.slli	zero,0x1b

01080f9c <rt_hw_cpu_arch>:
 1080f9c:	1141                	addi	sp,sp,-16
 1080f9e:	c622                	sw	s0,12(sp)
 1080fa0:	0800                	addi	s0,sp,16
 1080fa2:	01081537          	lui	a0,0x1081
 1080fa6:	f9450513          	addi	a0,a0,-108 # 1080f94 <print_number+0x282>
 1080faa:	4432                	lw	s0,12(sp)
 1080fac:	0141                	addi	sp,sp,16
 1080fae:	8082                	ret
 1080fb0:	5545                	li	a0,-15
 1080fb2:	4b4e                	lw	s6,208(sp)
 1080fb4:	4f4e                	lw	t5,208(sp)
 1080fb6:	57 00             	Address 0x0000000001080fb6 is out of bounds.


01080fb8 <rt_strerror>:
 1080fb8:	1141                	addi	sp,sp,-16
 1080fba:	c622                	sw	s0,12(sp)
 1080fbc:	0800                	addi	s0,sp,16
 1080fbe:	02054263          	bltz	a0,1080fe2 <rt_strerror+0x2a>
 1080fc2:	4701                	li	a4,0
 1080fc4:	47b9                	li	a5,14
 1080fc6:	02e7e863          	bltu	a5,a4,1080ff6 <rt_strerror+0x3e>
 1080fca:	00371693          	slli	a3,a4,0x3
 1080fce:	010827b7          	lui	a5,0x1082
 1080fd2:	37c78793          	addi	a5,a5,892 # 108237c <rt_errno_strs>
 1080fd6:	97b6                	add	a5,a5,a3
 1080fd8:	439c                	lw	a5,0(a5)
 1080fda:	00a78763          	beq	a5,a0,1080fe8 <rt_strerror+0x30>
 1080fde:	0705                	addi	a4,a4,1
 1080fe0:	b7d5                	j	1080fc4 <rt_strerror+0xc>
 1080fe2:	40a00533          	neg	a0,a0
 1080fe6:	bff1                	j	1080fc2 <rt_strerror+0xa>
 1080fe8:	010827b7          	lui	a5,0x1082
 1080fec:	37c78793          	addi	a5,a5,892 # 108237c <rt_errno_strs>
 1080ff0:	97b6                	add	a5,a5,a3
 1080ff2:	43c8                	lw	a0,4(a5)
 1080ff4:	a029                	j	1080ffe <rt_strerror+0x46>
 1080ff6:	01081537          	lui	a0,0x1081
 1080ffa:	fb050513          	addi	a0,a0,-80 # 1080fb0 <rt_hw_cpu_arch+0x14>
 1080ffe:	4432                	lw	s0,12(sp)
 1081000:	0141                	addi	sp,sp,16
 1081002:	8082                	ret

01081004 <rt_get_errno>:
 1081004:	1141                	addi	sp,sp,-16
 1081006:	c606                	sw	ra,12(sp)
 1081008:	c422                	sw	s0,8(sp)
 108100a:	0800                	addi	s0,sp,16
 108100c:	3ef1                	jal	1080be8 <rt_interrupt_get_nest>
 108100e:	c909                	beqz	a0,1081020 <rt_get_errno+0x1c>
 1081010:	0108e7b7          	lui	a5,0x108e
 1081014:	a7c7a503          	lw	a0,-1412(a5) # 108da7c <__rt_errno>
 1081018:	40b2                	lw	ra,12(sp)
 108101a:	4422                	lw	s0,8(sp)
 108101c:	0141                	addi	sp,sp,16
 108101e:	8082                	ret
 1081020:	249050ef          	jal	ra,1086a68 <rt_thread_self>
 1081024:	c119                	beqz	a0,108102a <rt_get_errno+0x26>
 1081026:	5908                	lw	a0,48(a0)
 1081028:	bfc5                	j	1081018 <rt_get_errno+0x14>
 108102a:	0108e7b7          	lui	a5,0x108e
 108102e:	a7c7a503          	lw	a0,-1412(a5) # 108da7c <__rt_errno>
 1081032:	b7dd                	j	1081018 <rt_get_errno+0x14>

01081034 <rt_set_errno>:
 1081034:	1141                	addi	sp,sp,-16
 1081036:	c606                	sw	ra,12(sp)
 1081038:	c422                	sw	s0,8(sp)
 108103a:	c226                	sw	s1,4(sp)
 108103c:	0800                	addi	s0,sp,16
 108103e:	84aa                	mv	s1,a0
 1081040:	3665                	jal	1080be8 <rt_interrupt_get_nest>
 1081042:	c911                	beqz	a0,1081056 <rt_set_errno+0x22>
 1081044:	0108e7b7          	lui	a5,0x108e
 1081048:	a697ae23          	sw	s1,-1412(a5) # 108da7c <__rt_errno>
 108104c:	40b2                	lw	ra,12(sp)
 108104e:	4422                	lw	s0,8(sp)
 1081050:	4492                	lw	s1,4(sp)
 1081052:	0141                	addi	sp,sp,16
 1081054:	8082                	ret
 1081056:	213050ef          	jal	ra,1086a68 <rt_thread_self>
 108105a:	c119                	beqz	a0,1081060 <rt_set_errno+0x2c>
 108105c:	d904                	sw	s1,48(a0)
 108105e:	b7fd                	j	108104c <rt_set_errno+0x18>
 1081060:	0108e7b7          	lui	a5,0x108e
 1081064:	a697ae23          	sw	s1,-1412(a5) # 108da7c <__rt_errno>
 1081068:	b7d5                	j	108104c <rt_set_errno+0x18>

0108106a <_rt_errno>:
 108106a:	1141                	addi	sp,sp,-16
 108106c:	c606                	sw	ra,12(sp)
 108106e:	c422                	sw	s0,8(sp)
 1081070:	0800                	addi	s0,sp,16
 1081072:	3e9d                	jal	1080be8 <rt_interrupt_get_nest>
 1081074:	c909                	beqz	a0,1081086 <_rt_errno+0x1c>
 1081076:	0108e537          	lui	a0,0x108e
 108107a:	a7c50513          	addi	a0,a0,-1412 # 108da7c <__rt_errno>
 108107e:	40b2                	lw	ra,12(sp)
 1081080:	4422                	lw	s0,8(sp)
 1081082:	0141                	addi	sp,sp,16
 1081084:	8082                	ret
 1081086:	1e3050ef          	jal	ra,1086a68 <rt_thread_self>
 108108a:	c501                	beqz	a0,1081092 <_rt_errno+0x28>
 108108c:	03050513          	addi	a0,a0,48
 1081090:	b7fd                	j	108107e <_rt_errno+0x14>
 1081092:	0108e537          	lui	a0,0x108e
 1081096:	a7c50513          	addi	a0,a0,-1412 # 108da7c <__rt_errno>
 108109a:	b7d5                	j	108107e <_rt_errno+0x14>

0108109c <rt_memset>:
 108109c:	1101                	addi	sp,sp,-32
 108109e:	ce22                	sw	s0,28(sp)
 10810a0:	1000                	addi	s0,sp,32
 10810a2:	fe042623          	sw	zero,-20(s0)
 10810a6:	478d                	li	a5,3
 10810a8:	06c7f363          	bgeu	a5,a2,108110e <rt_memset+0x72>
 10810ac:	0ff5f693          	zext.b	a3,a1
 10810b0:	00357793          	andi	a5,a0,3
 10810b4:	cb89                	beqz	a5,10810c6 <rt_memset+0x2a>
 10810b6:	87aa                	mv	a5,a0
 10810b8:	a0a9                	j	1081102 <rt_memset+0x66>
 10810ba:	fec40713          	addi	a4,s0,-20
 10810be:	973e                	add	a4,a4,a5
 10810c0:	00d70023          	sb	a3,0(a4)
 10810c4:	0785                	addi	a5,a5,1
 10810c6:	470d                	li	a4,3
 10810c8:	fef779e3          	bgeu	a4,a5,10810ba <rt_memset+0x1e>
 10810cc:	87aa                	mv	a5,a0
 10810ce:	a809                	j	10810e0 <rt_memset+0x44>
 10810d0:	fec42703          	lw	a4,-20(s0)
 10810d4:	c398                	sw	a4,0(a5)
 10810d6:	c3d8                	sw	a4,4(a5)
 10810d8:	c798                	sw	a4,8(a5)
 10810da:	c7d8                	sw	a4,12(a5)
 10810dc:	1641                	addi	a2,a2,-16
 10810de:	07c1                	addi	a5,a5,16
 10810e0:	473d                	li	a4,15
 10810e2:	fec767e3          	bltu	a4,a2,10810d0 <rt_memset+0x34>
 10810e6:	a031                	j	10810f2 <rt_memset+0x56>
 10810e8:	fec42703          	lw	a4,-20(s0)
 10810ec:	c398                	sw	a4,0(a5)
 10810ee:	1671                	addi	a2,a2,-4
 10810f0:	0791                	addi	a5,a5,4
 10810f2:	470d                	li	a4,3
 10810f4:	fec76ae3          	bltu	a4,a2,10810e8 <rt_memset+0x4c>
 10810f8:	a029                	j	1081102 <rt_memset+0x66>
 10810fa:	00b78023          	sb	a1,0(a5)
 10810fe:	0785                	addi	a5,a5,1
 1081100:	863a                	mv	a2,a4
 1081102:	fff60713          	addi	a4,a2,-1
 1081106:	fa75                	bnez	a2,10810fa <rt_memset+0x5e>
 1081108:	4472                	lw	s0,28(sp)
 108110a:	6105                	addi	sp,sp,32
 108110c:	8082                	ret
 108110e:	87aa                	mv	a5,a0
 1081110:	bfcd                	j	1081102 <rt_memset+0x66>

01081112 <rt_memcpy>:
 1081112:	1141                	addi	sp,sp,-16
 1081114:	c622                	sw	s0,12(sp)
 1081116:	0800                	addi	s0,sp,16
 1081118:	47bd                	li	a5,15
 108111a:	04c7ff63          	bgeu	a5,a2,1081178 <rt_memcpy+0x66>
 108111e:	00b567b3          	or	a5,a0,a1
 1081122:	8b8d                	andi	a5,a5,3
 1081124:	c395                	beqz	a5,1081148 <rt_memcpy+0x36>
 1081126:	87aa                	mv	a5,a0
 1081128:	a091                	j	108116c <rt_memcpy+0x5a>
 108112a:	4198                	lw	a4,0(a1)
 108112c:	c398                	sw	a4,0(a5)
 108112e:	41d8                	lw	a4,4(a1)
 1081130:	c3d8                	sw	a4,4(a5)
 1081132:	4598                	lw	a4,8(a1)
 1081134:	c798                	sw	a4,8(a5)
 1081136:	45d8                	lw	a4,12(a1)
 1081138:	c7d8                	sw	a4,12(a5)
 108113a:	1641                	addi	a2,a2,-16
 108113c:	05c1                	addi	a1,a1,16
 108113e:	07c1                	addi	a5,a5,16
 1081140:	473d                	li	a4,15
 1081142:	fec764e3          	bltu	a4,a2,108112a <rt_memcpy+0x18>
 1081146:	a801                	j	1081156 <rt_memcpy+0x44>
 1081148:	87aa                	mv	a5,a0
 108114a:	bfdd                	j	1081140 <rt_memcpy+0x2e>
 108114c:	4198                	lw	a4,0(a1)
 108114e:	c398                	sw	a4,0(a5)
 1081150:	1671                	addi	a2,a2,-4
 1081152:	0591                	addi	a1,a1,4
 1081154:	0791                	addi	a5,a5,4
 1081156:	470d                	li	a4,3
 1081158:	fec76ae3          	bltu	a4,a2,108114c <rt_memcpy+0x3a>
 108115c:	a801                	j	108116c <rt_memcpy+0x5a>
 108115e:	00058683          	lb	a3,0(a1)
 1081162:	00d78023          	sb	a3,0(a5)
 1081166:	863a                	mv	a2,a4
 1081168:	0585                	addi	a1,a1,1
 108116a:	0785                	addi	a5,a5,1
 108116c:	fff60713          	addi	a4,a2,-1
 1081170:	f67d                	bnez	a2,108115e <rt_memcpy+0x4c>
 1081172:	4432                	lw	s0,12(sp)
 1081174:	0141                	addi	sp,sp,16
 1081176:	8082                	ret
 1081178:	87aa                	mv	a5,a0
 108117a:	bfcd                	j	108116c <rt_memcpy+0x5a>

0108117c <rt_memmove>:
 108117c:	1141                	addi	sp,sp,-16
 108117e:	c622                	sw	s0,12(sp)
 1081180:	0800                	addi	s0,sp,16
 1081182:	04a5f163          	bgeu	a1,a0,10811c4 <rt_memmove+0x48>
 1081186:	00c587b3          	add	a5,a1,a2
 108118a:	02f57f63          	bgeu	a0,a5,10811c8 <rt_memmove+0x4c>
 108118e:	00c50733          	add	a4,a0,a2
 1081192:	a801                	j	10811a2 <rt_memmove+0x26>
 1081194:	17fd                	addi	a5,a5,-1
 1081196:	177d                	addi	a4,a4,-1
 1081198:	00078603          	lb	a2,0(a5)
 108119c:	00c70023          	sb	a2,0(a4)
 10811a0:	8636                	mv	a2,a3
 10811a2:	fff60693          	addi	a3,a2,-1
 10811a6:	f67d                	bnez	a2,1081194 <rt_memmove+0x18>
 10811a8:	a819                	j	10811be <rt_memmove+0x42>
 10811aa:	00058683          	lb	a3,0(a1)
 10811ae:	00d78023          	sb	a3,0(a5)
 10811b2:	0585                	addi	a1,a1,1
 10811b4:	0785                	addi	a5,a5,1
 10811b6:	863a                	mv	a2,a4
 10811b8:	fff60713          	addi	a4,a2,-1
 10811bc:	f67d                	bnez	a2,10811aa <rt_memmove+0x2e>
 10811be:	4432                	lw	s0,12(sp)
 10811c0:	0141                	addi	sp,sp,16
 10811c2:	8082                	ret
 10811c4:	87aa                	mv	a5,a0
 10811c6:	bfcd                	j	10811b8 <rt_memmove+0x3c>
 10811c8:	87aa                	mv	a5,a0
 10811ca:	b7fd                	j	10811b8 <rt_memmove+0x3c>

010811cc <rt_memcmp>:
 10811cc:	1141                	addi	sp,sp,-16
 10811ce:	c622                	sw	s0,12(sp)
 10811d0:	0800                	addi	s0,sp,16
 10811d2:	87aa                	mv	a5,a0
 10811d4:	4501                	li	a0,0
 10811d6:	a021                	j	10811de <rt_memcmp+0x12>
 10811d8:	0785                	addi	a5,a5,1
 10811da:	0585                	addi	a1,a1,1
 10811dc:	167d                	addi	a2,a2,-1
 10811de:	ca09                	beqz	a2,10811f0 <rt_memcmp+0x24>
 10811e0:	0007c683          	lbu	a3,0(a5)
 10811e4:	0005c703          	lbu	a4,0(a1)
 10811e8:	40e68533          	sub	a0,a3,a4
 10811ec:	fee686e3          	beq	a3,a4,10811d8 <rt_memcmp+0xc>
 10811f0:	4432                	lw	s0,12(sp)
 10811f2:	0141                	addi	sp,sp,16
 10811f4:	8082                	ret

010811f6 <rt_strcasecmp>:
 10811f6:	1141                	addi	sp,sp,-16
 10811f8:	c622                	sw	s0,12(sp)
 10811fa:	0800                	addi	s0,sp,16
 10811fc:	a031                	j	1081208 <rt_strcasecmp+0x12>
 10811fe:	02070713          	addi	a4,a4,32
 1081202:	02e79663          	bne	a5,a4,108122e <rt_strcasecmp+0x38>
 1081206:	c785                	beqz	a5,108122e <rt_strcasecmp+0x38>
 1081208:	00054783          	lbu	a5,0(a0)
 108120c:	0505                	addi	a0,a0,1
 108120e:	0005c703          	lbu	a4,0(a1)
 1081212:	0585                	addi	a1,a1,1
 1081214:	fbf78613          	addi	a2,a5,-65
 1081218:	46e5                	li	a3,25
 108121a:	00c6e463          	bltu	a3,a2,1081222 <rt_strcasecmp+0x2c>
 108121e:	02078793          	addi	a5,a5,32
 1081222:	fbf70693          	addi	a3,a4,-65
 1081226:	4665                	li	a2,25
 1081228:	fcd66de3          	bltu	a2,a3,1081202 <rt_strcasecmp+0xc>
 108122c:	bfc9                	j	10811fe <rt_strcasecmp+0x8>
 108122e:	40e78533          	sub	a0,a5,a4
 1081232:	4432                	lw	s0,12(sp)
 1081234:	0141                	addi	sp,sp,16
 1081236:	8082                	ret

01081238 <rt_strncpy>:
 1081238:	1141                	addi	sp,sp,-16
 108123a:	c622                	sw	s0,12(sp)
 108123c:	0800                	addi	s0,sp,16
 108123e:	ca19                	beqz	a2,1081254 <rt_strncpy+0x1c>
 1081240:	87aa                	mv	a5,a0
 1081242:	00058683          	lb	a3,0(a1)
 1081246:	0585                	addi	a1,a1,1
 1081248:	00d78023          	sb	a3,0(a5)
 108124c:	0785                	addi	a5,a5,1
 108124e:	c691                	beqz	a3,108125a <rt_strncpy+0x22>
 1081250:	167d                	addi	a2,a2,-1
 1081252:	fa65                	bnez	a2,1081242 <rt_strncpy+0xa>
 1081254:	4432                	lw	s0,12(sp)
 1081256:	0141                	addi	sp,sp,16
 1081258:	8082                	ret
 108125a:	167d                	addi	a2,a2,-1
 108125c:	de65                	beqz	a2,1081254 <rt_strncpy+0x1c>
 108125e:	00078023          	sb	zero,0(a5)
 1081262:	0785                	addi	a5,a5,1
 1081264:	bfdd                	j	108125a <rt_strncpy+0x22>

01081266 <rt_strcpy>:
 1081266:	1141                	addi	sp,sp,-16
 1081268:	c622                	sw	s0,12(sp)
 108126a:	0800                	addi	s0,sp,16
 108126c:	87aa                	mv	a5,a0
 108126e:	a029                	j	1081278 <rt_strcpy+0x12>
 1081270:	00e78023          	sb	a4,0(a5)
 1081274:	0785                	addi	a5,a5,1
 1081276:	0585                	addi	a1,a1,1
 1081278:	00058703          	lb	a4,0(a1)
 108127c:	fb75                	bnez	a4,1081270 <rt_strcpy+0xa>
 108127e:	00078023          	sb	zero,0(a5)
 1081282:	4432                	lw	s0,12(sp)
 1081284:	0141                	addi	sp,sp,16
 1081286:	8082                	ret

01081288 <rt_strncmp>:
 1081288:	1141                	addi	sp,sp,-16
 108128a:	c622                	sw	s0,12(sp)
 108128c:	0800                	addi	s0,sp,16
 108128e:	87aa                	mv	a5,a0
 1081290:	4501                	li	a0,0
 1081292:	a019                	j	1081298 <rt_strncmp+0x10>
 1081294:	167d                	addi	a2,a2,-1
 1081296:	85c2                	mv	a1,a6
 1081298:	ce19                	beqz	a2,10812b6 <rt_strncmp+0x2e>
 108129a:	00078703          	lb	a4,0(a5)
 108129e:	0ff77513          	zext.b	a0,a4
 10812a2:	00158813          	addi	a6,a1,1
 10812a6:	0005c683          	lbu	a3,0(a1)
 10812aa:	8d15                	sub	a0,a0,a3
 10812ac:	0562                	slli	a0,a0,0x18
 10812ae:	8561                	srai	a0,a0,0x18
 10812b0:	e119                	bnez	a0,10812b6 <rt_strncmp+0x2e>
 10812b2:	0785                	addi	a5,a5,1
 10812b4:	f365                	bnez	a4,1081294 <rt_strncmp+0xc>
 10812b6:	4432                	lw	s0,12(sp)
 10812b8:	0141                	addi	sp,sp,16
 10812ba:	8082                	ret

010812bc <rt_strcmp>:
 10812bc:	1141                	addi	sp,sp,-16
 10812be:	c622                	sw	s0,12(sp)
 10812c0:	0800                	addi	s0,sp,16
 10812c2:	a019                	j	10812c8 <rt_strcmp+0xc>
 10812c4:	0505                	addi	a0,a0,1
 10812c6:	0585                	addi	a1,a1,1
 10812c8:	00050783          	lb	a5,0(a0)
 10812cc:	c789                	beqz	a5,10812d6 <rt_strcmp+0x1a>
 10812ce:	00058703          	lb	a4,0(a1)
 10812d2:	fee789e3          	beq	a5,a4,10812c4 <rt_strcmp+0x8>
 10812d6:	00058503          	lb	a0,0(a1)
 10812da:	40a78533          	sub	a0,a5,a0
 10812de:	4432                	lw	s0,12(sp)
 10812e0:	0141                	addi	sp,sp,16
 10812e2:	8082                	ret

010812e4 <rt_strlen>:
 10812e4:	1141                	addi	sp,sp,-16
 10812e6:	c622                	sw	s0,12(sp)
 10812e8:	0800                	addi	s0,sp,16
 10812ea:	87aa                	mv	a5,a0
 10812ec:	a011                	j	10812f0 <rt_strlen+0xc>
 10812ee:	0785                	addi	a5,a5,1
 10812f0:	00078703          	lb	a4,0(a5)
 10812f4:	ff6d                	bnez	a4,10812ee <rt_strlen+0xa>
 10812f6:	40a78533          	sub	a0,a5,a0
 10812fa:	4432                	lw	s0,12(sp)
 10812fc:	0141                	addi	sp,sp,16
 10812fe:	8082                	ret

01081300 <rt_strstr>:
 1081300:	1101                	addi	sp,sp,-32
 1081302:	ce06                	sw	ra,28(sp)
 1081304:	cc22                	sw	s0,24(sp)
 1081306:	ca26                	sw	s1,20(sp)
 1081308:	c84a                	sw	s2,16(sp)
 108130a:	c64e                	sw	s3,12(sp)
 108130c:	c452                	sw	s4,8(sp)
 108130e:	c256                	sw	s5,4(sp)
 1081310:	1000                	addi	s0,sp,32
 1081312:	84aa                	mv	s1,a0
 1081314:	8a2e                	mv	s4,a1
 1081316:	852e                	mv	a0,a1
 1081318:	37f1                	jal	10812e4 <rt_strlen>
 108131a:	e919                	bnez	a0,1081330 <rt_strstr+0x30>
 108131c:	8526                	mv	a0,s1
 108131e:	40f2                	lw	ra,28(sp)
 1081320:	4462                	lw	s0,24(sp)
 1081322:	44d2                	lw	s1,20(sp)
 1081324:	4942                	lw	s2,16(sp)
 1081326:	49b2                	lw	s3,12(sp)
 1081328:	4a22                	lw	s4,8(sp)
 108132a:	4a92                	lw	s5,4(sp)
 108132c:	6105                	addi	sp,sp,32
 108132e:	8082                	ret
 1081330:	89aa                	mv	s3,a0
 1081332:	8aaa                	mv	s5,a0
 1081334:	8526                	mv	a0,s1
 1081336:	377d                	jal	10812e4 <rt_strlen>
 1081338:	892a                	mv	s2,a0
 108133a:	01594a63          	blt	s2,s5,108134e <rt_strstr+0x4e>
 108133e:	197d                	addi	s2,s2,-1
 1081340:	864e                	mv	a2,s3
 1081342:	85d2                	mv	a1,s4
 1081344:	8526                	mv	a0,s1
 1081346:	3559                	jal	10811cc <rt_memcmp>
 1081348:	d971                	beqz	a0,108131c <rt_strstr+0x1c>
 108134a:	0485                	addi	s1,s1,1
 108134c:	b7fd                	j	108133a <rt_strstr+0x3a>
 108134e:	4481                	li	s1,0
 1081350:	b7f1                	j	108131c <rt_strstr+0x1c>

01081352 <rt_strnlen>:
 1081352:	1141                	addi	sp,sp,-16
 1081354:	c622                	sw	s0,12(sp)
 1081356:	0800                	addi	s0,sp,16
 1081358:	87aa                	mv	a5,a0
 108135a:	a011                	j	108135e <rt_strnlen+0xc>
 108135c:	0785                	addi	a5,a5,1
 108135e:	00078703          	lb	a4,0(a5)
 1081362:	c709                	beqz	a4,108136c <rt_strnlen+0x1a>
 1081364:	40a78733          	sub	a4,a5,a0
 1081368:	feb76ae3          	bltu	a4,a1,108135c <rt_strnlen+0xa>
 108136c:	40a78533          	sub	a0,a5,a0
 1081370:	4432                	lw	s0,12(sp)
 1081372:	0141                	addi	sp,sp,16
 1081374:	8082                	ret
 1081376:	0000                	unimp
 1081378:	4e28                	lw	a0,88(a2)
 108137a:	4c55                	li	s8,21
 108137c:	294c                	.2byte	0x294c
	...

01081380 <rt_vsnprintf>:
 1081380:	7179                	addi	sp,sp,-48
 1081382:	d606                	sw	ra,44(sp)
 1081384:	d422                	sw	s0,40(sp)
 1081386:	d226                	sw	s1,36(sp)
 1081388:	d04a                	sw	s2,32(sp)
 108138a:	ce4e                	sw	s3,28(sp)
 108138c:	cc52                	sw	s4,24(sp)
 108138e:	1800                	addi	s0,sp,48
 1081390:	89aa                	mv	s3,a0
 1081392:	8a2e                	mv	s4,a1
 1081394:	84b2                	mv	s1,a2
 1081396:	fcd42e23          	sw	a3,-36(s0)
 108139a:	00b50933          	add	s2,a0,a1
 108139e:	00a97563          	bgeu	s2,a0,10813a8 <rt_vsnprintf+0x28>
 10813a2:	fff54a13          	not	s4,a0
 10813a6:	597d                	li	s2,-1
 10813a8:	854e                	mv	a0,s3
 10813aa:	a019                	j	10813b0 <rt_vsnprintf+0x30>
 10813ac:	0505                	addi	a0,a0,1
 10813ae:	0485                	addi	s1,s1,1
 10813b0:	00048783          	lb	a5,0(s1)
 10813b4:	32078463          	beqz	a5,10816dc <rt_vsnprintf+0x35c>
 10813b8:	02500713          	li	a4,37
 10813bc:	00e78763          	beq	a5,a4,10813ca <rt_vsnprintf+0x4a>
 10813c0:	ff2576e3          	bgeu	a0,s2,10813ac <rt_vsnprintf+0x2c>
 10813c4:	00f50023          	sb	a5,0(a0)
 10813c8:	b7d5                	j	10813ac <rt_vsnprintf+0x2c>
 10813ca:	4881                	li	a7,0
 10813cc:	a019                	j	10813d2 <rt_vsnprintf+0x52>
 10813ce:	0108e893          	ori	a7,a7,16
 10813d2:	0485                	addi	s1,s1,1
 10813d4:	00048783          	lb	a5,0(s1)
 10813d8:	02d00713          	li	a4,45
 10813dc:	fee789e3          	beq	a5,a4,10813ce <rt_vsnprintf+0x4e>
 10813e0:	02b00713          	li	a4,43
 10813e4:	02e78163          	beq	a5,a4,1081406 <rt_vsnprintf+0x86>
 10813e8:	02000713          	li	a4,32
 10813ec:	02e78063          	beq	a5,a4,108140c <rt_vsnprintf+0x8c>
 10813f0:	02300713          	li	a4,35
 10813f4:	00e78f63          	beq	a5,a4,1081412 <rt_vsnprintf+0x92>
 10813f8:	03000713          	li	a4,48
 10813fc:	00e79e63          	bne	a5,a4,1081418 <rt_vsnprintf+0x98>
 1081400:	0018e893          	ori	a7,a7,1
 1081404:	b7f9                	j	10813d2 <rt_vsnprintf+0x52>
 1081406:	0048e893          	ori	a7,a7,4
 108140a:	b7e1                	j	10813d2 <rt_vsnprintf+0x52>
 108140c:	0088e893          	ori	a7,a7,8
 1081410:	b7c9                	j	10813d2 <rt_vsnprintf+0x52>
 1081412:	0208e893          	ori	a7,a7,32
 1081416:	bf75                	j	10813d2 <rt_vsnprintf+0x52>
 1081418:	fd078713          	addi	a4,a5,-48
 108141c:	46a5                	li	a3,9
 108141e:	04e6fc63          	bgeu	a3,a4,1081476 <rt_vsnprintf+0xf6>
 1081422:	02a00713          	li	a4,42
 1081426:	04e78a63          	beq	a5,a4,108147a <rt_vsnprintf+0xfa>
 108142a:	57fd                	li	a5,-1
 108142c:	00048683          	lb	a3,0(s1)
 1081430:	02e00713          	li	a4,46
 1081434:	06e68263          	beq	a3,a4,1081498 <rt_vsnprintf+0x118>
 1081438:	587d                	li	a6,-1
 108143a:	00048703          	lb	a4,0(s1)
 108143e:	06800693          	li	a3,104
 1081442:	0ad70a63          	beq	a4,a3,10814f6 <rt_vsnprintf+0x176>
 1081446:	06c00693          	li	a3,108
 108144a:	0ad70663          	beq	a4,a3,10814f6 <rt_vsnprintf+0x176>
 108144e:	4701                	li	a4,0
 1081450:	a075                	j	10814fc <rt_vsnprintf+0x17c>
 1081452:	00279713          	slli	a4,a5,0x2
 1081456:	97ba                	add	a5,a5,a4
 1081458:	0786                	slli	a5,a5,0x1
 108145a:	00048703          	lb	a4,0(s1)
 108145e:	97ba                	add	a5,a5,a4
 1081460:	fd078793          	addi	a5,a5,-48
 1081464:	0485                	addi	s1,s1,1
 1081466:	00048703          	lb	a4,0(s1)
 108146a:	fd070713          	addi	a4,a4,-48
 108146e:	46a5                	li	a3,9
 1081470:	fee6f1e3          	bgeu	a3,a4,1081452 <rt_vsnprintf+0xd2>
 1081474:	bf65                	j	108142c <rt_vsnprintf+0xac>
 1081476:	4781                	li	a5,0
 1081478:	b7fd                	j	1081466 <rt_vsnprintf+0xe6>
 108147a:	0485                	addi	s1,s1,1
 108147c:	fdc42783          	lw	a5,-36(s0)
 1081480:	00478713          	addi	a4,a5,4
 1081484:	fce42e23          	sw	a4,-36(s0)
 1081488:	439c                	lw	a5,0(a5)
 108148a:	fa07d1e3          	bgez	a5,108142c <rt_vsnprintf+0xac>
 108148e:	40f007b3          	neg	a5,a5
 1081492:	0108e893          	ori	a7,a7,16
 1081496:	bf59                	j	108142c <rt_vsnprintf+0xac>
 1081498:	0485                	addi	s1,s1,1
 108149a:	00048703          	lb	a4,0(s1)
 108149e:	fd070613          	addi	a2,a4,-48
 10814a2:	46a5                	li	a3,9
 10814a4:	02c6fd63          	bgeu	a3,a2,10814de <rt_vsnprintf+0x15e>
 10814a8:	02a00693          	li	a3,42
 10814ac:	02d70b63          	beq	a4,a3,10814e2 <rt_vsnprintf+0x162>
 10814b0:	4801                	li	a6,0
 10814b2:	b761                	j	108143a <rt_vsnprintf+0xba>
 10814b4:	00281713          	slli	a4,a6,0x2
 10814b8:	9742                	add	a4,a4,a6
 10814ba:	0706                	slli	a4,a4,0x1
 10814bc:	00048683          	lb	a3,0(s1)
 10814c0:	9736                	add	a4,a4,a3
 10814c2:	fd070813          	addi	a6,a4,-48
 10814c6:	0485                	addi	s1,s1,1
 10814c8:	00048703          	lb	a4,0(s1)
 10814cc:	fd070713          	addi	a4,a4,-48
 10814d0:	46a5                	li	a3,9
 10814d2:	fee6f1e3          	bgeu	a3,a4,10814b4 <rt_vsnprintf+0x134>
 10814d6:	f60852e3          	bgez	a6,108143a <rt_vsnprintf+0xba>
 10814da:	4801                	li	a6,0
 10814dc:	bfb9                	j	108143a <rt_vsnprintf+0xba>
 10814de:	4801                	li	a6,0
 10814e0:	b7e5                	j	10814c8 <rt_vsnprintf+0x148>
 10814e2:	0485                	addi	s1,s1,1
 10814e4:	fdc42703          	lw	a4,-36(s0)
 10814e8:	00470693          	addi	a3,a4,4
 10814ec:	fcd42e23          	sw	a3,-36(s0)
 10814f0:	00072803          	lw	a6,0(a4)
 10814f4:	b7cd                	j	10814d6 <rt_vsnprintf+0x156>
 10814f6:	0ff77713          	zext.b	a4,a4
 10814fa:	0485                	addi	s1,s1,1
 10814fc:	00048683          	lb	a3,0(s1)
 1081500:	fdb68693          	addi	a3,a3,-37
 1081504:	0ff6f593          	zext.b	a1,a3
 1081508:	05300613          	li	a2,83
 108150c:	16b66663          	bltu	a2,a1,1081678 <rt_vsnprintf+0x2f8>
 1081510:	00259693          	slli	a3,a1,0x2
 1081514:	01081637          	lui	a2,0x1081
 1081518:	70460613          	addi	a2,a2,1796 # 1081704 <rt_vsnprintf+0x384>
 108151c:	96b2                	add	a3,a3,a2
 108151e:	4294                	lw	a3,0(a3)
 1081520:	8682                	jr	a3
 1081522:	0108f893          	andi	a7,a7,16
 1081526:	02088163          	beqz	a7,1081548 <rt_vsnprintf+0x1c8>
 108152a:	fdc42703          	lw	a4,-36(s0)
 108152e:	00470693          	addi	a3,a4,4
 1081532:	fcd42e23          	sw	a3,-36(s0)
 1081536:	00070703          	lb	a4,0(a4)
 108153a:	01257463          	bgeu	a0,s2,1081542 <rt_vsnprintf+0x1c2>
 108153e:	00e50023          	sb	a4,0(a0)
 1081542:	0505                	addi	a0,a0,1
 1081544:	a829                	j	108155e <rt_vsnprintf+0x1de>
 1081546:	0505                	addi	a0,a0,1
 1081548:	17fd                	addi	a5,a5,-1
 108154a:	fef050e3          	blez	a5,108152a <rt_vsnprintf+0x1aa>
 108154e:	ff257ce3          	bgeu	a0,s2,1081546 <rt_vsnprintf+0x1c6>
 1081552:	02000713          	li	a4,32
 1081556:	00e50023          	sb	a4,0(a0)
 108155a:	b7f5                	j	1081546 <rt_vsnprintf+0x1c6>
 108155c:	0505                	addi	a0,a0,1
 108155e:	17fd                	addi	a5,a5,-1
 1081560:	e4f057e3          	blez	a5,10813ae <rt_vsnprintf+0x2e>
 1081564:	ff257ce3          	bgeu	a0,s2,108155c <rt_vsnprintf+0x1dc>
 1081568:	02000713          	li	a4,32
 108156c:	00e50023          	sb	a4,0(a0)
 1081570:	b7f5                	j	108155c <rt_vsnprintf+0x1dc>
 1081572:	fdc42703          	lw	a4,-36(s0)
 1081576:	00470693          	addi	a3,a4,4
 108157a:	fcd42e23          	sw	a3,-36(s0)
 108157e:	4314                	lw	a3,0(a4)
 1081580:	c299                	beqz	a3,1081586 <rt_vsnprintf+0x206>
 1081582:	4701                	li	a4,0
 1081584:	a039                	j	1081592 <rt_vsnprintf+0x212>
 1081586:	010816b7          	lui	a3,0x1081
 108158a:	37868693          	addi	a3,a3,888 # 1081378 <rt_strnlen+0x26>
 108158e:	bfd5                	j	1081582 <rt_vsnprintf+0x202>
 1081590:	0705                	addi	a4,a4,1
 1081592:	00f70763          	beq	a4,a5,10815a0 <rt_vsnprintf+0x220>
 1081596:	00e68633          	add	a2,a3,a4
 108159a:	00060603          	lb	a2,0(a2)
 108159e:	fa6d                	bnez	a2,1081590 <rt_vsnprintf+0x210>
 10815a0:	01005563          	blez	a6,10815aa <rt_vsnprintf+0x22a>
 10815a4:	00e85363          	bge	a6,a4,10815aa <rt_vsnprintf+0x22a>
 10815a8:	8742                	mv	a4,a6
 10815aa:	0108f893          	andi	a7,a7,16
 10815ae:	00088663          	beqz	a7,10815ba <rt_vsnprintf+0x23a>
 10815b2:	4601                	li	a2,0
 10815b4:	a01d                	j	10815da <rt_vsnprintf+0x25a>
 10815b6:	0505                	addi	a0,a0,1
 10815b8:	87b2                	mv	a5,a2
 10815ba:	fff78613          	addi	a2,a5,-1
 10815be:	00f75963          	bge	a4,a5,10815d0 <rt_vsnprintf+0x250>
 10815c2:	ff257ae3          	bgeu	a0,s2,10815b6 <rt_vsnprintf+0x236>
 10815c6:	02000793          	li	a5,32
 10815ca:	00f50023          	sb	a5,0(a0)
 10815ce:	b7e5                	j	10815b6 <rt_vsnprintf+0x236>
 10815d0:	87b2                	mv	a5,a2
 10815d2:	b7c5                	j	10815b2 <rt_vsnprintf+0x232>
 10815d4:	0505                	addi	a0,a0,1
 10815d6:	0685                	addi	a3,a3,1
 10815d8:	0605                	addi	a2,a2,1
 10815da:	00e65b63          	bge	a2,a4,10815f0 <rt_vsnprintf+0x270>
 10815de:	ff257be3          	bgeu	a0,s2,10815d4 <rt_vsnprintf+0x254>
 10815e2:	00068583          	lb	a1,0(a3)
 10815e6:	00b50023          	sb	a1,0(a0)
 10815ea:	b7ed                	j	10815d4 <rt_vsnprintf+0x254>
 10815ec:	0505                	addi	a0,a0,1
 10815ee:	87b6                	mv	a5,a3
 10815f0:	fff78693          	addi	a3,a5,-1
 10815f4:	daf75de3          	bge	a4,a5,10813ae <rt_vsnprintf+0x2e>
 10815f8:	ff257ae3          	bgeu	a0,s2,10815ec <rt_vsnprintf+0x26c>
 10815fc:	02000793          	li	a5,32
 1081600:	00f50023          	sb	a5,0(a0)
 1081604:	b7e5                	j	10815ec <rt_vsnprintf+0x26c>
 1081606:	56fd                	li	a3,-1
 1081608:	00d78e63          	beq	a5,a3,1081624 <rt_vsnprintf+0x2a4>
 108160c:	fdc42603          	lw	a2,-36(s0)
 1081610:	00460693          	addi	a3,a2,4
 1081614:	fcd42e23          	sw	a3,-36(s0)
 1081618:	46c1                	li	a3,16
 108161a:	4210                	lw	a2,0(a2)
 108161c:	85ca                	mv	a1,s2
 108161e:	ef4ff0ef          	jal	ra,1080d12 <print_number>
 1081622:	b371                	j	10813ae <rt_vsnprintf+0x2e>
 1081624:	0218e893          	ori	a7,a7,33
 1081628:	47a9                	li	a5,10
 108162a:	b7cd                	j	108160c <rt_vsnprintf+0x28c>
 108162c:	01257663          	bgeu	a0,s2,1081638 <rt_vsnprintf+0x2b8>
 1081630:	02500793          	li	a5,37
 1081634:	00f50023          	sb	a5,0(a0)
 1081638:	0505                	addi	a0,a0,1
 108163a:	bb95                	j	10813ae <rt_vsnprintf+0x2e>
 108163c:	4689                	li	a3,2
 108163e:	06c00613          	li	a2,108
 1081642:	06c70363          	beq	a4,a2,10816a8 <rt_vsnprintf+0x328>
 1081646:	06800613          	li	a2,104
 108164a:	06c70763          	beq	a4,a2,10816b8 <rt_vsnprintf+0x338>
 108164e:	fdc42603          	lw	a2,-36(s0)
 1081652:	00460593          	addi	a1,a2,4
 1081656:	fcb42e23          	sw	a1,-36(s0)
 108165a:	4210                	lw	a2,0(a2)
 108165c:	85ca                	mv	a1,s2
 108165e:	eb4ff0ef          	jal	ra,1080d12 <print_number>
 1081662:	b3b1                	j	10813ae <rt_vsnprintf+0x2e>
 1081664:	46a1                	li	a3,8
 1081666:	bfe1                	j	108163e <rt_vsnprintf+0x2be>
 1081668:	0408e893          	ori	a7,a7,64
 108166c:	46c1                	li	a3,16
 108166e:	bfc1                	j	108163e <rt_vsnprintf+0x2be>
 1081670:	0028e893          	ori	a7,a7,2
 1081674:	46a9                	li	a3,10
 1081676:	b7e1                	j	108163e <rt_vsnprintf+0x2be>
 1081678:	01257663          	bgeu	a0,s2,1081684 <rt_vsnprintf+0x304>
 108167c:	02500793          	li	a5,37
 1081680:	00f50023          	sb	a5,0(a0)
 1081684:	00150793          	addi	a5,a0,1
 1081688:	00048703          	lb	a4,0(s1)
 108168c:	c719                	beqz	a4,108169a <rt_vsnprintf+0x31a>
 108168e:	0127f463          	bgeu	a5,s2,1081696 <rt_vsnprintf+0x316>
 1081692:	00e500a3          	sb	a4,1(a0)
 1081696:	0509                	addi	a0,a0,2
 1081698:	bb19                	j	10813ae <rt_vsnprintf+0x2e>
 108169a:	14fd                	addi	s1,s1,-1
 108169c:	853e                	mv	a0,a5
 108169e:	bb01                	j	10813ae <rt_vsnprintf+0x2e>
 10816a0:	46a9                	li	a3,10
 10816a2:	bf71                	j	108163e <rt_vsnprintf+0x2be>
 10816a4:	46c1                	li	a3,16
 10816a6:	bf61                	j	108163e <rt_vsnprintf+0x2be>
 10816a8:	fdc42603          	lw	a2,-36(s0)
 10816ac:	00460593          	addi	a1,a2,4
 10816b0:	fcb42e23          	sw	a1,-36(s0)
 10816b4:	4210                	lw	a2,0(a2)
 10816b6:	b75d                	j	108165c <rt_vsnprintf+0x2dc>
 10816b8:	fdc42603          	lw	a2,-36(s0)
 10816bc:	00460593          	addi	a1,a2,4
 10816c0:	fcb42e23          	sw	a1,-36(s0)
 10816c4:	420c                	lw	a1,0(a2)
 10816c6:	01059613          	slli	a2,a1,0x10
 10816ca:	8241                	srli	a2,a2,0x10
 10816cc:	0028f313          	andi	t1,a7,2
 10816d0:	f80306e3          	beqz	t1,108165c <rt_vsnprintf+0x2dc>
 10816d4:	01059613          	slli	a2,a1,0x10
 10816d8:	8641                	srai	a2,a2,0x10
 10816da:	b749                	j	108165c <rt_vsnprintf+0x2dc>
 10816dc:	000a0663          	beqz	s4,10816e8 <rt_vsnprintf+0x368>
 10816e0:	01257e63          	bgeu	a0,s2,10816fc <rt_vsnprintf+0x37c>
 10816e4:	00050023          	sb	zero,0(a0)
 10816e8:	41350533          	sub	a0,a0,s3
 10816ec:	50b2                	lw	ra,44(sp)
 10816ee:	5422                	lw	s0,40(sp)
 10816f0:	5492                	lw	s1,36(sp)
 10816f2:	5902                	lw	s2,32(sp)
 10816f4:	49f2                	lw	s3,28(sp)
 10816f6:	4a62                	lw	s4,24(sp)
 10816f8:	6145                	addi	sp,sp,48
 10816fa:	8082                	ret
 10816fc:	fe090fa3          	sb	zero,-1(s2)
 1081700:	b7e5                	j	10816e8 <rt_vsnprintf+0x368>
 1081702:	0000                	unimp
 1081704:	162c                	addi	a1,sp,808
 1081706:	0108                	addi	a0,sp,128
 1081708:	1678                	addi	a4,sp,812
 108170a:	0108                	addi	a0,sp,128
 108170c:	1678                	addi	a4,sp,812
 108170e:	0108                	addi	a0,sp,128
 1081710:	1678                	addi	a4,sp,812
 1081712:	0108                	addi	a0,sp,128
 1081714:	1678                	addi	a4,sp,812
 1081716:	0108                	addi	a0,sp,128
 1081718:	1678                	addi	a4,sp,812
 108171a:	0108                	addi	a0,sp,128
 108171c:	1678                	addi	a4,sp,812
 108171e:	0108                	addi	a0,sp,128
 1081720:	1678                	addi	a4,sp,812
 1081722:	0108                	addi	a0,sp,128
 1081724:	1678                	addi	a4,sp,812
 1081726:	0108                	addi	a0,sp,128
 1081728:	1678                	addi	a4,sp,812
 108172a:	0108                	addi	a0,sp,128
 108172c:	1678                	addi	a4,sp,812
 108172e:	0108                	addi	a0,sp,128
 1081730:	1678                	addi	a4,sp,812
 1081732:	0108                	addi	a0,sp,128
 1081734:	1678                	addi	a4,sp,812
 1081736:	0108                	addi	a0,sp,128
 1081738:	1678                	addi	a4,sp,812
 108173a:	0108                	addi	a0,sp,128
 108173c:	1678                	addi	a4,sp,812
 108173e:	0108                	addi	a0,sp,128
 1081740:	1678                	addi	a4,sp,812
 1081742:	0108                	addi	a0,sp,128
 1081744:	1678                	addi	a4,sp,812
 1081746:	0108                	addi	a0,sp,128
 1081748:	1678                	addi	a4,sp,812
 108174a:	0108                	addi	a0,sp,128
 108174c:	1678                	addi	a4,sp,812
 108174e:	0108                	addi	a0,sp,128
 1081750:	1678                	addi	a4,sp,812
 1081752:	0108                	addi	a0,sp,128
 1081754:	1678                	addi	a4,sp,812
 1081756:	0108                	addi	a0,sp,128
 1081758:	1678                	addi	a4,sp,812
 108175a:	0108                	addi	a0,sp,128
 108175c:	1678                	addi	a4,sp,812
 108175e:	0108                	addi	a0,sp,128
 1081760:	1678                	addi	a4,sp,812
 1081762:	0108                	addi	a0,sp,128
 1081764:	1678                	addi	a4,sp,812
 1081766:	0108                	addi	a0,sp,128
 1081768:	1678                	addi	a4,sp,812
 108176a:	0108                	addi	a0,sp,128
 108176c:	1678                	addi	a4,sp,812
 108176e:	0108                	addi	a0,sp,128
 1081770:	1678                	addi	a4,sp,812
 1081772:	0108                	addi	a0,sp,128
 1081774:	1678                	addi	a4,sp,812
 1081776:	0108                	addi	a0,sp,128
 1081778:	1678                	addi	a4,sp,812
 108177a:	0108                	addi	a0,sp,128
 108177c:	1678                	addi	a4,sp,812
 108177e:	0108                	addi	a0,sp,128
 1081780:	1678                	addi	a4,sp,812
 1081782:	0108                	addi	a0,sp,128
 1081784:	1678                	addi	a4,sp,812
 1081786:	0108                	addi	a0,sp,128
 1081788:	1678                	addi	a4,sp,812
 108178a:	0108                	addi	a0,sp,128
 108178c:	1678                	addi	a4,sp,812
 108178e:	0108                	addi	a0,sp,128
 1081790:	1678                	addi	a4,sp,812
 1081792:	0108                	addi	a0,sp,128
 1081794:	1678                	addi	a4,sp,812
 1081796:	0108                	addi	a0,sp,128
 1081798:	1678                	addi	a4,sp,812
 108179a:	0108                	addi	a0,sp,128
 108179c:	1678                	addi	a4,sp,812
 108179e:	0108                	addi	a0,sp,128
 10817a0:	1678                	addi	a4,sp,812
 10817a2:	0108                	addi	a0,sp,128
 10817a4:	1678                	addi	a4,sp,812
 10817a6:	0108                	addi	a0,sp,128
 10817a8:	1678                	addi	a4,sp,812
 10817aa:	0108                	addi	a0,sp,128
 10817ac:	1678                	addi	a4,sp,812
 10817ae:	0108                	addi	a0,sp,128
 10817b0:	1678                	addi	a4,sp,812
 10817b2:	0108                	addi	a0,sp,128
 10817b4:	1678                	addi	a4,sp,812
 10817b6:	0108                	addi	a0,sp,128
 10817b8:	1678                	addi	a4,sp,812
 10817ba:	0108                	addi	a0,sp,128
 10817bc:	1678                	addi	a4,sp,812
 10817be:	0108                	addi	a0,sp,128
 10817c0:	1678                	addi	a4,sp,812
 10817c2:	0108                	addi	a0,sp,128
 10817c4:	1678                	addi	a4,sp,812
 10817c6:	0108                	addi	a0,sp,128
 10817c8:	1678                	addi	a4,sp,812
 10817ca:	0108                	addi	a0,sp,128
 10817cc:	1678                	addi	a4,sp,812
 10817ce:	0108                	addi	a0,sp,128
 10817d0:	1668                	addi	a0,sp,812
 10817d2:	0108                	addi	a0,sp,128
 10817d4:	1678                	addi	a4,sp,812
 10817d6:	0108                	addi	a0,sp,128
 10817d8:	1678                	addi	a4,sp,812
 10817da:	0108                	addi	a0,sp,128
 10817dc:	1678                	addi	a4,sp,812
 10817de:	0108                	addi	a0,sp,128
 10817e0:	1678                	addi	a4,sp,812
 10817e2:	0108                	addi	a0,sp,128
 10817e4:	1678                	addi	a4,sp,812
 10817e6:	0108                	addi	a0,sp,128
 10817e8:	1678                	addi	a4,sp,812
 10817ea:	0108                	addi	a0,sp,128
 10817ec:	1678                	addi	a4,sp,812
 10817ee:	0108                	addi	a0,sp,128
 10817f0:	1678                	addi	a4,sp,812
 10817f2:	0108                	addi	a0,sp,128
 10817f4:	1678                	addi	a4,sp,812
 10817f6:	0108                	addi	a0,sp,128
 10817f8:	163c                	addi	a5,sp,808
 10817fa:	0108                	addi	a0,sp,128
 10817fc:	1522                	slli	a0,a0,0x28
 10817fe:	0108                	addi	a0,sp,128
 1081800:	1670                	addi	a2,sp,812
 1081802:	0108                	addi	a0,sp,128
 1081804:	1678                	addi	a4,sp,812
 1081806:	0108                	addi	a0,sp,128
 1081808:	1678                	addi	a4,sp,812
 108180a:	0108                	addi	a0,sp,128
 108180c:	1678                	addi	a4,sp,812
 108180e:	0108                	addi	a0,sp,128
 1081810:	1678                	addi	a4,sp,812
 1081812:	0108                	addi	a0,sp,128
 1081814:	1670                	addi	a2,sp,812
 1081816:	0108                	addi	a0,sp,128
 1081818:	1678                	addi	a4,sp,812
 108181a:	0108                	addi	a0,sp,128
 108181c:	1678                	addi	a4,sp,812
 108181e:	0108                	addi	a0,sp,128
 1081820:	1678                	addi	a4,sp,812
 1081822:	0108                	addi	a0,sp,128
 1081824:	1678                	addi	a4,sp,812
 1081826:	0108                	addi	a0,sp,128
 1081828:	1678                	addi	a4,sp,812
 108182a:	0108                	addi	a0,sp,128
 108182c:	1664                	addi	s1,sp,812
 108182e:	0108                	addi	a0,sp,128
 1081830:	1606                	slli	a2,a2,0x21
 1081832:	0108                	addi	a0,sp,128
 1081834:	1678                	addi	a4,sp,812
 1081836:	0108                	addi	a0,sp,128
 1081838:	1678                	addi	a4,sp,812
 108183a:	0108                	addi	a0,sp,128
 108183c:	1572                	slli	a0,a0,0x3c
 108183e:	0108                	addi	a0,sp,128
 1081840:	1678                	addi	a4,sp,812
 1081842:	0108                	addi	a0,sp,128
 1081844:	16a0                	addi	s0,sp,872
 1081846:	0108                	addi	a0,sp,128
 1081848:	1678                	addi	a4,sp,812
 108184a:	0108                	addi	a0,sp,128
 108184c:	1678                	addi	a4,sp,812
 108184e:	0108                	addi	a0,sp,128
 1081850:	16a4                	addi	s1,sp,872
 1081852:	0108                	addi	a0,sp,128

01081854 <rt_snprintf>:
 1081854:	7139                	addi	sp,sp,-64
 1081856:	ce06                	sw	ra,28(sp)
 1081858:	cc22                	sw	s0,24(sp)
 108185a:	1000                	addi	s0,sp,32
 108185c:	c454                	sw	a3,12(s0)
 108185e:	c818                	sw	a4,16(s0)
 1081860:	c85c                	sw	a5,20(s0)
 1081862:	01042c23          	sw	a6,24(s0)
 1081866:	01142e23          	sw	a7,28(s0)
 108186a:	00c40693          	addi	a3,s0,12
 108186e:	fed42623          	sw	a3,-20(s0)
 1081872:	3639                	jal	1081380 <rt_vsnprintf>
 1081874:	40f2                	lw	ra,28(sp)
 1081876:	4462                	lw	s0,24(sp)
 1081878:	6121                	addi	sp,sp,64
 108187a:	8082                	ret

0108187c <rt_vsprintf>:
 108187c:	1141                	addi	sp,sp,-16
 108187e:	c606                	sw	ra,12(sp)
 1081880:	c422                	sw	s0,8(sp)
 1081882:	0800                	addi	s0,sp,16
 1081884:	86b2                	mv	a3,a2
 1081886:	862e                	mv	a2,a1
 1081888:	55fd                	li	a1,-1
 108188a:	3cdd                	jal	1081380 <rt_vsnprintf>
 108188c:	40b2                	lw	ra,12(sp)
 108188e:	4422                	lw	s0,8(sp)
 1081890:	0141                	addi	sp,sp,16
 1081892:	8082                	ret

01081894 <rt_sprintf>:
 1081894:	7139                	addi	sp,sp,-64
 1081896:	ce06                	sw	ra,28(sp)
 1081898:	cc22                	sw	s0,24(sp)
 108189a:	1000                	addi	s0,sp,32
 108189c:	c410                	sw	a2,8(s0)
 108189e:	c454                	sw	a3,12(s0)
 10818a0:	c818                	sw	a4,16(s0)
 10818a2:	c85c                	sw	a5,20(s0)
 10818a4:	01042c23          	sw	a6,24(s0)
 10818a8:	01142e23          	sw	a7,28(s0)
 10818ac:	00840613          	addi	a2,s0,8
 10818b0:	fec42623          	sw	a2,-20(s0)
 10818b4:	37e1                	jal	108187c <rt_vsprintf>
 10818b6:	40f2                	lw	ra,28(sp)
 10818b8:	4462                	lw	s0,24(sp)
 10818ba:	6121                	addi	sp,sp,64
 10818bc:	8082                	ret

010818be <rt_console_get_device>:
 10818be:	1141                	addi	sp,sp,-16
 10818c0:	c622                	sw	s0,12(sp)
 10818c2:	0800                	addi	s0,sp,16
 10818c4:	0108e7b7          	lui	a5,0x108e
 10818c8:	a807a503          	lw	a0,-1408(a5) # 108da80 <_console_device>
 10818cc:	4432                	lw	s0,12(sp)
 10818ce:	0141                	addi	sp,sp,16
 10818d0:	8082                	ret

010818d2 <rt_console_set_device>:
 10818d2:	1141                	addi	sp,sp,-16
 10818d4:	c606                	sw	ra,12(sp)
 10818d6:	c422                	sw	s0,8(sp)
 10818d8:	c226                	sw	s1,4(sp)
 10818da:	c04a                	sw	s2,0(sp)
 10818dc:	0800                	addi	s0,sp,16
 10818de:	0108e7b7          	lui	a5,0x108e
 10818e2:	a807a903          	lw	s2,-1408(a5) # 108da80 <_console_device>
 10818e6:	7ef8a097          	auipc	ra,0x7ef8a
 10818ea:	7fa080e7          	jalr	2042(ra) # 8000c0e0 <rt_device_find>
 10818ee:	02a90f63          	beq	s2,a0,108192c <rt_console_set_device+0x5a>
 10818f2:	84aa                	mv	s1,a0
 10818f4:	c50d                	beqz	a0,108191e <rt_console_set_device+0x4c>
 10818f6:	0108e7b7          	lui	a5,0x108e
 10818fa:	a807a503          	lw	a0,-1408(a5) # 108da80 <_console_device>
 10818fe:	c509                	beqz	a0,1081908 <rt_console_set_device+0x36>
 1081900:	7ef8b097          	auipc	ra,0x7ef8b
 1081904:	9a8080e7          	jalr	-1624(ra) # 8000c2a8 <rt_device_close>
 1081908:	04300593          	li	a1,67
 108190c:	8526                	mv	a0,s1
 108190e:	7ef8b097          	auipc	ra,0x7ef8b
 1081912:	83e080e7          	jalr	-1986(ra) # 8000c14c <rt_device_open>
 1081916:	0108e7b7          	lui	a5,0x108e
 108191a:	a897a023          	sw	s1,-1408(a5) # 108da80 <_console_device>
 108191e:	854a                	mv	a0,s2
 1081920:	40b2                	lw	ra,12(sp)
 1081922:	4422                	lw	s0,8(sp)
 1081924:	4492                	lw	s1,4(sp)
 1081926:	4902                	lw	s2,0(sp)
 1081928:	0141                	addi	sp,sp,16
 108192a:	8082                	ret
 108192c:	4901                	li	s2,0
 108192e:	bfc5                	j	108191e <rt_console_set_device+0x4c>
 1081930:	1141                	addi	sp,sp,-16
 1081932:	c622                	sw	s0,12(sp)
 1081934:	0800                	addi	s0,sp,16
 1081936:	4432                	lw	s0,12(sp)
 1081938:	0141                	addi	sp,sp,16
 108193a:	8082                	ret

0108193c <rt_kputs>:
 108193c:	c131                	beqz	a0,1081980 <rt_kputs+0x44>
 108193e:	1141                	addi	sp,sp,-16
 1081940:	c606                	sw	ra,12(sp)
 1081942:	c422                	sw	s0,8(sp)
 1081944:	c226                	sw	s1,4(sp)
 1081946:	c04a                	sw	s2,0(sp)
 1081948:	0800                	addi	s0,sp,16
 108194a:	84aa                	mv	s1,a0
 108194c:	0108e7b7          	lui	a5,0x108e
 1081950:	a807a903          	lw	s2,-1408(a5) # 108da80 <_console_device>
 1081954:	02090163          	beqz	s2,1081976 <rt_kputs+0x3a>
 1081958:	3271                	jal	10812e4 <rt_strlen>
 108195a:	86aa                	mv	a3,a0
 108195c:	8626                	mv	a2,s1
 108195e:	4581                	li	a1,0
 1081960:	854a                	mv	a0,s2
 1081962:	7ef8b097          	auipc	ra,0x7ef8b
 1081966:	a8a080e7          	jalr	-1398(ra) # 8000c3ec <rt_device_write>
 108196a:	40b2                	lw	ra,12(sp)
 108196c:	4422                	lw	s0,8(sp)
 108196e:	4492                	lw	s1,4(sp)
 1081970:	4902                	lw	s2,0(sp)
 1081972:	0141                	addi	sp,sp,16
 1081974:	8082                	ret
 1081976:	7ef8e097          	auipc	ra,0x7ef8e
 108197a:	4d0080e7          	jalr	1232(ra) # 8000fe46 <rt_hw_console_output>
 108197e:	b7f5                	j	108196a <rt_kputs+0x2e>
 1081980:	8082                	ret

01081982 <rt_kprintf>:
 1081982:	7139                	addi	sp,sp,-64
 1081984:	ce06                	sw	ra,28(sp)
 1081986:	cc22                	sw	s0,24(sp)
 1081988:	ca26                	sw	s1,20(sp)
 108198a:	1000                	addi	s0,sp,32
 108198c:	c04c                	sw	a1,4(s0)
 108198e:	c410                	sw	a2,8(s0)
 1081990:	c454                	sw	a3,12(s0)
 1081992:	c818                	sw	a4,16(s0)
 1081994:	c85c                	sw	a5,20(s0)
 1081996:	01042c23          	sw	a6,24(s0)
 108199a:	01142e23          	sw	a7,28(s0)
 108199e:	00440693          	addi	a3,s0,4
 10819a2:	fed42623          	sw	a3,-20(s0)
 10819a6:	862a                	mv	a2,a0
 10819a8:	07f00593          	li	a1,127
 10819ac:	0108c537          	lui	a0,0x108c
 10819b0:	f9c50513          	addi	a0,a0,-100 # 108bf9c <rt_log_buf.2>
 10819b4:	32f1                	jal	1081380 <rt_vsnprintf>
 10819b6:	84aa                	mv	s1,a0
 10819b8:	07f00793          	li	a5,127
 10819bc:	00a7f463          	bgeu	a5,a0,10819c4 <rt_kprintf+0x42>
 10819c0:	07f00493          	li	s1,127
 10819c4:	0108e7b7          	lui	a5,0x108e
 10819c8:	a807a503          	lw	a0,-1408(a5) # 108da80 <_console_device>
 10819cc:	c10d                	beqz	a0,10819ee <rt_kprintf+0x6c>
 10819ce:	86a6                	mv	a3,s1
 10819d0:	0108c637          	lui	a2,0x108c
 10819d4:	f9c60613          	addi	a2,a2,-100 # 108bf9c <rt_log_buf.2>
 10819d8:	4581                	li	a1,0
 10819da:	7ef8b097          	auipc	ra,0x7ef8b
 10819de:	a12080e7          	jalr	-1518(ra) # 8000c3ec <rt_device_write>
 10819e2:	8526                	mv	a0,s1
 10819e4:	40f2                	lw	ra,28(sp)
 10819e6:	4462                	lw	s0,24(sp)
 10819e8:	44d2                	lw	s1,20(sp)
 10819ea:	6121                	addi	sp,sp,64
 10819ec:	8082                	ret
 10819ee:	0108c537          	lui	a0,0x108c
 10819f2:	f9c50513          	addi	a0,a0,-100 # 108bf9c <rt_log_buf.2>
 10819f6:	7ef8e097          	auipc	ra,0x7ef8e
 10819fa:	450080e7          	jalr	1104(ra) # 8000fe46 <rt_hw_console_output>
 10819fe:	b7d5                	j	10819e2 <rt_kprintf+0x60>
 1081a00:	33335b1b          	.4byte	0x33335b1b
 1081a04:	5b6d                	li	s6,-5
 1081a06:	656b2f57          	.4byte	0x656b2f57
 1081a0a:	6e72                	.2byte	0x6e72
 1081a0c:	6c65                	lui	s8,0x19
 1081a0e:	642e                	.2byte	0x642e
 1081a10:	7665                	lui	a2,0xffff9
 1081a12:	6369                	lui	t1,0x1a
 1081a14:	5d65                	li	s10,-7
 1081a16:	0020                	addi	s0,sp,8
 1081a18:	7472                	.2byte	0x7472
 1081a1a:	685f 5f77 7375      	.byte	0x5f, 0x68, 0x77, 0x5f, 0x75, 0x73
 1081a20:	645f 6c65 7961      	.byte	0x5f, 0x64, 0x65, 0x6c, 0x61, 0x79
 1081a26:	2928                	.2byte	0x2928
 1081a28:	6420                	.2byte	0x6420
 1081a2a:	6e73656f          	jal	a0,10b8910 <__global_pointer$+0x2a5d0>
 1081a2e:	73207427          	.4byte	0x73207427
 1081a32:	7075                	c.lui	zero,0xffffd
 1081a34:	6f70                	.2byte	0x6f70
 1081a36:	7472                	.2byte	0x7472
 1081a38:	6620                	.2byte	0x6620
 1081a3a:	7420726f          	jal	tp,108917c <rt_smem_realloc+0xa8>
 1081a3e:	6968                	.2byte	0x6968
 1081a40:	6f622073          	csrs	0x6f6,tp
 1081a44:	7261                	lui	tp,0xffff8
 1081a46:	2e64                	.2byte	0x2e64
 1081a48:	6c50                	.2byte	0x6c50
 1081a4a:	6165                	addi	sp,sp,112
 1081a4c:	63206573          	csrrsi	a0,0x632,0
 1081a50:	69736e6f          	jal	t3,10b88e6 <__global_pointer$+0x2a5a6>
 1081a54:	6564                	.2byte	0x6564
 1081a56:	2072                	.2byte	0x2072
 1081a58:	6d69                	lui	s10,0x1a
 1081a5a:	6c70                	.2byte	0x6c70
 1081a5c:	6d65                	lui	s10,0x19
 1081a5e:	6e65                	lui	t3,0x19
 1081a60:	6974                	.2byte	0x6974
 1081a62:	676e                	.2byte	0x676e
 1081a64:	7220                	.2byte	0x7220
 1081a66:	5f74                	lw	a3,124(a4)
 1081a68:	7768                	.2byte	0x7768
 1081a6a:	755f 5f73 6564      	.byte	0x5f, 0x75, 0x73, 0x5f, 0x64, 0x65
 1081a70:	616c                	.2byte	0x616c
 1081a72:	2879                	jal	1081b10 <rt_hw_us_delay+0x82>
 1081a74:	2029                	jal	1081a7e <rt_kprintf+0xfc>
 1081a76:	6e69                	lui	t3,0x1a
 1081a78:	6120                	.2byte	0x6120
 1081a7a:	6f6e                	.2byte	0x6f6e
 1081a7c:	6874                	.2byte	0x6874
 1081a7e:	7265                	lui	tp,0xffff9
 1081a80:	6620                	.2byte	0x6620
 1081a82:	6c69                	lui	s8,0x1a
 1081a84:	2e65                	jal	1081e3c <rt_hw_cpu_shutdown+0x6c>
 1081a86:	0000                	unimp
 1081a88:	6d305b1b          	.4byte	0x6d305b1b
 1081a8c:	000a                	c.slli	zero,0x2

01081a8e <rt_hw_us_delay>:
 1081a8e:	1141                	addi	sp,sp,-16
 1081a90:	c606                	sw	ra,12(sp)
 1081a92:	c422                	sw	s0,8(sp)
 1081a94:	0800                	addi	s0,sp,16
 1081a96:	01082537          	lui	a0,0x1082
 1081a9a:	a0050513          	addi	a0,a0,-1536 # 1081a00 <rt_kprintf+0x7e>
 1081a9e:	35d5                	jal	1081982 <rt_kprintf>
 1081aa0:	01082537          	lui	a0,0x1082
 1081aa4:	a1850513          	addi	a0,a0,-1512 # 1081a18 <rt_kprintf+0x96>
 1081aa8:	3de9                	jal	1081982 <rt_kprintf>
 1081aaa:	01082537          	lui	a0,0x1082
 1081aae:	a8850513          	addi	a0,a0,-1400 # 1081a88 <rt_kprintf+0x106>
 1081ab2:	3dc1                	jal	1081982 <rt_kprintf>
 1081ab4:	40b2                	lw	ra,12(sp)
 1081ab6:	4422                	lw	s0,8(sp)
 1081ab8:	0141                	addi	sp,sp,16
 1081aba:	8082                	ret
 1081abc:	7472                	.2byte	0x7472
 1081abe:	685f 5f77 7063      	.byte	0x5f, 0x68, 0x77, 0x5f, 0x63, 0x70
 1081ac4:	5f75                	li	t5,-3
 1081ac6:	6572                	.2byte	0x6572
 1081ac8:	28746573          	csrrsi	a0,0x287,8
 1081acc:	2029                	jal	1081ad6 <rt_hw_us_delay+0x48>
 1081ace:	6f64                	.2byte	0x6f64
 1081ad0:	7365                	lui	t1,0xffff9
 1081ad2:	276e                	.2byte	0x276e
 1081ad4:	2074                	.2byte	0x2074
 1081ad6:	70707573          	csrrci	a0,0x707,0
 1081ada:	2074726f          	jal	tp,10c94e0 <__global_pointer$+0x3b1a0>
 1081ade:	6f66                	.2byte	0x6f66
 1081ae0:	2072                	.2byte	0x2072
 1081ae2:	6874                	.2byte	0x6874
 1081ae4:	7369                	lui	t1,0xffffa
 1081ae6:	6220                	.2byte	0x6220
 1081ae8:	6472616f          	jal	sp,10a892e <__global_pointer$+0x1a5ee>
 1081aec:	502e                	.2byte	0x502e
 1081aee:	656c                	.2byte	0x656c
 1081af0:	7361                	lui	t1,0xffff8
 1081af2:	2065                	jal	1081b9a <rt_hw_us_delay+0x10c>
 1081af4:	736e6f63          	bltu	t3,s6,1082232 <__FUNCTION__.0+0x2>
 1081af8:	6469                	lui	s0,0x1a
 1081afa:	7265                	lui	tp,0xffff9
 1081afc:	6920                	.2byte	0x6920
 1081afe:	706d                	c.lui	zero,0xffffb
 1081b00:	656c                	.2byte	0x656c
 1081b02:	656d                	lui	a0,0x1b
 1081b04:	746e                	.2byte	0x746e
 1081b06:	6e69                	lui	t3,0x1a
 1081b08:	74722067          	.4byte	0x74722067
 1081b0c:	685f 5f77 7063      	.byte	0x5f, 0x68, 0x77, 0x5f, 0x63, 0x70
 1081b12:	5f75                	li	t5,-3
 1081b14:	6572                	.2byte	0x6572
 1081b16:	28746573          	csrrsi	a0,0x287,8
 1081b1a:	2029                	jal	1081b24 <rt_hw_us_delay+0x96>
 1081b1c:	6e69                	lui	t3,0x1a
 1081b1e:	6120                	.2byte	0x6120
 1081b20:	6f6e                	.2byte	0x6f6e
 1081b22:	6874                	.2byte	0x6874
 1081b24:	7265                	lui	tp,0xffff9
 1081b26:	6620                	.2byte	0x6620
 1081b28:	6c69                	lui	s8,0x1a
 1081b2a:	2e65                	jal	1081ee2 <rt_free+0x1e>
 1081b2c:	0000                	unimp
 1081b2e:	1141                	addi	sp,sp,-16
 1081b30:	c606                	sw	ra,12(sp)
 1081b32:	c422                	sw	s0,8(sp)
 1081b34:	0800                	addi	s0,sp,16
 1081b36:	01082537          	lui	a0,0x1082
 1081b3a:	a0050513          	addi	a0,a0,-1536 # 1081a00 <rt_kprintf+0x7e>
 1081b3e:	3591                	jal	1081982 <rt_kprintf>
 1081b40:	01082537          	lui	a0,0x1082
 1081b44:	abc50513          	addi	a0,a0,-1348 # 1081abc <rt_hw_us_delay+0x2e>
 1081b48:	3d2d                	jal	1081982 <rt_kprintf>
 1081b4a:	01082537          	lui	a0,0x1082
 1081b4e:	a8850513          	addi	a0,a0,-1400 # 1081a88 <rt_kprintf+0x106>
 1081b52:	3d05                	jal	1081982 <rt_kprintf>
 1081b54:	40b2                	lw	ra,12(sp)
 1081b56:	4422                	lw	s0,8(sp)
 1081b58:	0141                	addi	sp,sp,16
 1081b5a:	8082                	ret
 1081b5c:	200a                	.2byte	0x200a
 1081b5e:	205c                	.2byte	0x205c
 1081b60:	207c                	.2byte	0x207c
 1081b62:	00000a2f          	.4byte	0xa2f
 1081b66:	0000                	unimp
 1081b68:	202d                	jal	1081b92 <rt_hw_us_delay+0x104>
 1081b6a:	5452                	lw	s0,52(sp)
 1081b6c:	2d20                	.2byte	0x2d20
 1081b6e:	2020                	.2byte	0x2020
 1081b70:	2020                	.2byte	0x2020
 1081b72:	5420                	lw	s0,104(s0)
 1081b74:	7268                	.2byte	0x7268
 1081b76:	6165                	addi	sp,sp,112
 1081b78:	2064                	.2byte	0x2064
 1081b7a:	7265704f          	.4byte	0x7265704f
 1081b7e:	7461                	lui	s0,0xffff8
 1081b80:	6e69                	lui	t3,0x1a
 1081b82:	79532067          	.4byte	0x79532067
 1081b86:	6d657473          	csrrci	s0,0x6d6,10
 1081b8a:	000a                	c.slli	zero,0x2
 1081b8c:	3631                	jal	1081698 <rt_vsnprintf+0x318>
 1081b8e:	343a                	.2byte	0x343a
 1081b90:	3a30                	.2byte	0x3a30
 1081b92:	3635                	jal	10816be <rt_vsnprintf+0x33e>
 1081b94:	0000                	unimp
 1081b96:	0000                	unimp
 1081b98:	7541                	lui	a0,0xffff0
 1081b9a:	38322067          	.4byte	0x38322067
 1081b9e:	3220                	.2byte	0x3220
 1081ba0:	3230                	.2byte	0x3230
 1081ba2:	0034                	addi	a3,sp,8
 1081ba4:	2f20                	.2byte	0x2f20
 1081ba6:	7c20                	.2byte	0x7c20
 1081ba8:	5c20                	lw	s0,120(s0)
 1081baa:	2020                	.2byte	0x2020
 1081bac:	2020                	.2byte	0x2020
 1081bae:	2520                	.2byte	0x2520
 1081bb0:	2e64                	.2byte	0x2e64
 1081bb2:	6425                	lui	s0,0x9
 1081bb4:	252e                	.2byte	0x252e
 1081bb6:	2064                	.2byte	0x2064
 1081bb8:	7562                	.2byte	0x7562
 1081bba:	6c69                	lui	s8,0x1a
 1081bbc:	2064                	.2byte	0x2064
 1081bbe:	7325                	lui	t1,0xfffe9
 1081bc0:	2520                	.2byte	0x2520
 1081bc2:	00000a73          	.4byte	0xa73
 1081bc6:	0000                	unimp
 1081bc8:	3220                	.2byte	0x3220
 1081bca:	3030                	.2byte	0x3030
 1081bcc:	2036                	.2byte	0x2036
 1081bce:	202d                	jal	1081bf8 <rt_show_version+0x6>
 1081bd0:	3032                	.2byte	0x3032
 1081bd2:	3232                	.2byte	0x3232
 1081bd4:	4320                	lw	s0,64(a4)
 1081bd6:	7279706f          	j	1119afc <__rt_rvstack+0x47b34>
 1081bda:	6769                	lui	a4,0x1a
 1081bdc:	7468                	.2byte	0x7468
 1081bde:	6220                	.2byte	0x6220
 1081be0:	2079                	jal	1081c6e <__rt_ffs+0x6>
 1081be2:	5452                	lw	s0,52(sp)
 1081be4:	542d                	li	s0,-21
 1081be6:	7268                	.2byte	0x7268
 1081be8:	6165                	addi	sp,sp,112
 1081bea:	2064                	.2byte	0x2064
 1081bec:	6574                	.2byte	0x6574
 1081bee:	6d61                	lui	s10,0x18
 1081bf0:	000a                	c.slli	zero,0x2

01081bf2 <rt_show_version>:
 1081bf2:	1141                	addi	sp,sp,-16
 1081bf4:	c606                	sw	ra,12(sp)
 1081bf6:	c422                	sw	s0,8(sp)
 1081bf8:	0800                	addi	s0,sp,16
 1081bfa:	01082537          	lui	a0,0x1082
 1081bfe:	b5c50513          	addi	a0,a0,-1188 # 1081b5c <rt_hw_us_delay+0xce>
 1081c02:	3341                	jal	1081982 <rt_kprintf>
 1081c04:	01082537          	lui	a0,0x1082
 1081c08:	b6850513          	addi	a0,a0,-1176 # 1081b68 <rt_hw_us_delay+0xda>
 1081c0c:	3b9d                	jal	1081982 <rt_kprintf>
 1081c0e:	010827b7          	lui	a5,0x1082
 1081c12:	b8c78793          	addi	a5,a5,-1140 # 1081b8c <rt_hw_us_delay+0xfe>
 1081c16:	01082737          	lui	a4,0x1082
 1081c1a:	b9870713          	addi	a4,a4,-1128 # 1081b98 <rt_hw_us_delay+0x10a>
 1081c1e:	4689                	li	a3,2
 1081c20:	4601                	li	a2,0
 1081c22:	4595                	li	a1,5
 1081c24:	01082537          	lui	a0,0x1082
 1081c28:	ba450513          	addi	a0,a0,-1116 # 1081ba4 <rt_hw_us_delay+0x116>
 1081c2c:	3b99                	jal	1081982 <rt_kprintf>
 1081c2e:	01082537          	lui	a0,0x1082
 1081c32:	bc850513          	addi	a0,a0,-1080 # 1081bc8 <rt_hw_us_delay+0x13a>
 1081c36:	33b1                	jal	1081982 <rt_kprintf>
 1081c38:	40b2                	lw	ra,12(sp)
 1081c3a:	4422                	lw	s0,8(sp)
 1081c3c:	0141                	addi	sp,sp,16
 1081c3e:	8082                	ret

01081c40 <rt_malloc_sethook>:
 1081c40:	1141                	addi	sp,sp,-16
 1081c42:	c622                	sw	s0,12(sp)
 1081c44:	0800                	addi	s0,sp,16
 1081c46:	0108e7b7          	lui	a5,0x108e
 1081c4a:	a8a7a623          	sw	a0,-1396(a5) # 108da8c <rt_malloc_hook>
 1081c4e:	4432                	lw	s0,12(sp)
 1081c50:	0141                	addi	sp,sp,16
 1081c52:	8082                	ret

01081c54 <rt_free_sethook>:
 1081c54:	1141                	addi	sp,sp,-16
 1081c56:	c622                	sw	s0,12(sp)
 1081c58:	0800                	addi	s0,sp,16
 1081c5a:	0108e7b7          	lui	a5,0x108e
 1081c5e:	a8a7a423          	sw	a0,-1400(a5) # 108da88 <rt_free_hook>
 1081c62:	4432                	lw	s0,12(sp)
 1081c64:	0141                	addi	sp,sp,16
 1081c66:	8082                	ret

01081c68 <__rt_ffs>:
 1081c68:	1141                	addi	sp,sp,-16
 1081c6a:	c622                	sw	s0,12(sp)
 1081c6c:	0800                	addi	s0,sp,16
 1081c6e:	cd1d                	beqz	a0,1081cac <__rt_ffs+0x44>
 1081c70:	0ff57793          	zext.b	a5,a0
 1081c74:	e785                	bnez	a5,1081c9c <__rt_ffs+0x34>
 1081c76:	67c1                	lui	a5,0x10
 1081c78:	f0078793          	addi	a5,a5,-256 # ff00 <STACK_SIZE+0xbf00>
 1081c7c:	8fe9                	and	a5,a5,a0
 1081c7e:	eb95                	bnez	a5,1081cb2 <__rt_ffs+0x4a>
 1081c80:	00ff07b7          	lui	a5,0xff0
 1081c84:	8fe9                	and	a5,a5,a0
 1081c86:	e3b1                	bnez	a5,1081cca <__rt_ffs+0x62>
 1081c88:	8161                	srli	a0,a0,0x18
 1081c8a:	010827b7          	lui	a5,0x1082
 1081c8e:	26878793          	addi	a5,a5,616 # 1082268 <__lowest_bit_bitmap>
 1081c92:	97aa                	add	a5,a5,a0
 1081c94:	0007c503          	lbu	a0,0(a5)
 1081c98:	0565                	addi	a0,a0,25
 1081c9a:	a809                	j	1081cac <__rt_ffs+0x44>
 1081c9c:	01082737          	lui	a4,0x1082
 1081ca0:	26870713          	addi	a4,a4,616 # 1082268 <__lowest_bit_bitmap>
 1081ca4:	97ba                	add	a5,a5,a4
 1081ca6:	0007c503          	lbu	a0,0(a5)
 1081caa:	0505                	addi	a0,a0,1
 1081cac:	4432                	lw	s0,12(sp)
 1081cae:	0141                	addi	sp,sp,16
 1081cb0:	8082                	ret
 1081cb2:	8521                	srai	a0,a0,0x8
 1081cb4:	0ff57513          	zext.b	a0,a0
 1081cb8:	010827b7          	lui	a5,0x1082
 1081cbc:	26878793          	addi	a5,a5,616 # 1082268 <__lowest_bit_bitmap>
 1081cc0:	97aa                	add	a5,a5,a0
 1081cc2:	0007c503          	lbu	a0,0(a5)
 1081cc6:	0525                	addi	a0,a0,9
 1081cc8:	b7d5                	j	1081cac <__rt_ffs+0x44>
 1081cca:	8541                	srai	a0,a0,0x10
 1081ccc:	0ff57513          	zext.b	a0,a0
 1081cd0:	010827b7          	lui	a5,0x1082
 1081cd4:	26878793          	addi	a5,a5,616 # 1082268 <__lowest_bit_bitmap>
 1081cd8:	97aa                	add	a5,a5,a0
 1081cda:	0007c503          	lbu	a0,0(a5)
 1081cde:	0545                	addi	a0,a0,17
 1081ce0:	b7f1                	j	1081cac <__rt_ffs+0x44>

01081ce2 <rt_assert_set_hook>:
 1081ce2:	1141                	addi	sp,sp,-16
 1081ce4:	c622                	sw	s0,12(sp)
 1081ce6:	0800                	addi	s0,sp,16
 1081ce8:	0108e7b7          	lui	a5,0x108e
 1081cec:	a8a7a223          	sw	a0,-1404(a5) # 108da84 <rt_assert_hook>
 1081cf0:	4432                	lw	s0,12(sp)
 1081cf2:	0141                	addi	sp,sp,16
 1081cf4:	8082                	ret
 1081cf6:	0000                	unimp
 1081cf8:	2528                	.2byte	0x2528
 1081cfa:	61202973          	csrr	s2,0x612
 1081cfe:	72657373          	csrrci	t1,0x726,10
 1081d02:	6974                	.2byte	0x6974
 1081d04:	66206e6f          	jal	t3,1088366 <rt_timer_control+0xdc>
 1081d08:	6961                	lui	s2,0x18
 1081d0a:	656c                	.2byte	0x656c
 1081d0c:	2064                	.2byte	0x2064
 1081d0e:	7461                	lui	s0,0xffff8
 1081d10:	6620                	.2byte	0x6620
 1081d12:	6e75                	lui	t3,0x1d
 1081d14:	6f697463          	bgeu	s2,s6,10823fc <small_digits.3+0x8>
 1081d18:	3a6e                	.2byte	0x3a6e
 1081d1a:	7325                	lui	t1,0xfffe9
 1081d1c:	202c                	.2byte	0x202c
 1081d1e:	696c                	.2byte	0x696c
 1081d20:	656e                	.2byte	0x656e
 1081d22:	6e20                	.2byte	0x6e20
 1081d24:	6d75                	lui	s10,0x1d
 1081d26:	6562                	.2byte	0x6562
 1081d28:	3a72                	.2byte	0x3a72
 1081d2a:	6425                	lui	s0,0x9
 1081d2c:	0a20                	addi	s0,sp,280
	...

01081d30 <rt_assert_handler>:
 1081d30:	1101                	addi	sp,sp,-32
 1081d32:	ce06                	sw	ra,28(sp)
 1081d34:	cc22                	sw	s0,24(sp)
 1081d36:	1000                	addi	s0,sp,32
 1081d38:	fe0407a3          	sb	zero,-17(s0) # 8fef <STACK_SIZE+0x4fef>
 1081d3c:	0108e7b7          	lui	a5,0x108e
 1081d40:	a847a783          	lw	a5,-1404(a5) # 108da84 <rt_assert_hook>
 1081d44:	c791                	beqz	a5,1081d50 <rt_assert_handler+0x20>
 1081d46:	9782                	jalr	a5
 1081d48:	40f2                	lw	ra,28(sp)
 1081d4a:	4462                	lw	s0,24(sp)
 1081d4c:	6105                	addi	sp,sp,32
 1081d4e:	8082                	ret
 1081d50:	86b2                	mv	a3,a2
 1081d52:	862e                	mv	a2,a1
 1081d54:	85aa                	mv	a1,a0
 1081d56:	01082537          	lui	a0,0x1082
 1081d5a:	cf850513          	addi	a0,a0,-776 # 1081cf8 <rt_assert_set_hook+0x16>
 1081d5e:	3115                	jal	1081982 <rt_kprintf>
 1081d60:	fef44783          	lbu	a5,-17(s0)
 1081d64:	07e2                	slli	a5,a5,0x18
 1081d66:	87e1                	srai	a5,a5,0x18
 1081d68:	dfe5                	beqz	a5,1081d60 <rt_assert_handler+0x30>
 1081d6a:	bff9                	j	1081d48 <rt_assert_handler+0x18>
 1081d6c:	7355                	lui	t1,0xffff5
 1081d6e:	6e69                	lui	t3,0x1a
 1081d70:	65642067          	.4byte	0x65642067
 1081d74:	6166                	.2byte	0x6166
 1081d76:	6c75                	lui	s8,0x1d
 1081d78:	2074                	.2byte	0x2074
 1081d7a:	7472                	.2byte	0x7472
 1081d7c:	685f 5f77 7063      	.byte	0x5f, 0x68, 0x77, 0x5f, 0x63, 0x70
 1081d82:	5f75                	li	t5,-3
 1081d84:	74756873          	csrrsi	a6,0x747,10
 1081d88:	6f64                	.2byte	0x6f64
 1081d8a:	29286e77          	.4byte	0x29286e77
 1081d8e:	502e                	.2byte	0x502e
 1081d90:	656c                	.2byte	0x656c
 1081d92:	7361                	lui	t1,0xffff8
 1081d94:	2065                	jal	1081e3c <rt_hw_cpu_shutdown+0x6c>
 1081d96:	736e6f63          	bltu	t3,s6,10824d4 <rt_thread_idle_sethook>
 1081d9a:	6469                	lui	s0,0x1a
 1081d9c:	7265                	lui	tp,0xffff9
 1081d9e:	6920                	.2byte	0x6920
 1081da0:	706d                	c.lui	zero,0xffffb
 1081da2:	656c                	.2byte	0x656c
 1081da4:	656d                	lui	a0,0x1b
 1081da6:	746e                	.2byte	0x746e
 1081da8:	6e69                	lui	t3,0x1a
 1081daa:	74722067          	.4byte	0x74722067
 1081dae:	685f 5f77 7063      	.byte	0x5f, 0x68, 0x77, 0x5f, 0x63, 0x70
 1081db4:	5f75                	li	t5,-3
 1081db6:	6572                	.2byte	0x6572
 1081db8:	28746573          	csrrsi	a0,0x287,8
 1081dbc:	2029                	jal	1081dc6 <rt_assert_handler+0x96>
 1081dbe:	6e69                	lui	t3,0x1a
 1081dc0:	6120                	.2byte	0x6120
 1081dc2:	6f6e                	.2byte	0x6f6e
 1081dc4:	6874                	.2byte	0x6874
 1081dc6:	7265                	lui	tp,0xffff9
 1081dc8:	6620                	.2byte	0x6620
 1081dca:	6c69                	lui	s8,0x1a
 1081dcc:	2e65                	jal	1082184 <rt_memory_info+0x86>
	...

01081dd0 <rt_hw_cpu_shutdown>:
 1081dd0:	1141                	addi	sp,sp,-16
 1081dd2:	c606                	sw	ra,12(sp)
 1081dd4:	c422                	sw	s0,8(sp)
 1081dd6:	c226                	sw	s1,4(sp)
 1081dd8:	0800                	addi	s0,sp,16
 1081dda:	01082537          	lui	a0,0x1082
 1081dde:	a0050513          	addi	a0,a0,-1536 # 1081a00 <rt_kprintf+0x7e>
 1081de2:	3645                	jal	1081982 <rt_kprintf>
 1081de4:	01082537          	lui	a0,0x1082
 1081de8:	d6c50513          	addi	a0,a0,-660 # 1081d6c <rt_assert_handler+0x3c>
 1081dec:	3e59                	jal	1081982 <rt_kprintf>
 1081dee:	01082537          	lui	a0,0x1082
 1081df2:	a8850513          	addi	a0,a0,-1400 # 1081a88 <rt_kprintf+0x106>
 1081df6:	3671                	jal	1081982 <rt_kprintf>
 1081df8:	f28fe0ef          	jal	ra,1080520 <__ramfunc_start__>
 1081dfc:	84aa                	mv	s1,a0
 1081dfe:	a821                	j	1081e16 <rt_hw_cpu_shutdown+0x46>
 1081e00:	05900613          	li	a2,89
 1081e04:	010825b7          	lui	a1,0x1082
 1081e08:	25458593          	addi	a1,a1,596 # 1082254 <__FUNCTION__.5>
 1081e0c:	0108b537          	lui	a0,0x108b
 1081e10:	d5450513          	addi	a0,a0,-684 # 108ad54 <hpm_spi_xfer+0xf6>
 1081e14:	3f31                	jal	1081d30 <rt_assert_handler>
 1081e16:	f4ed                	bnez	s1,1081e00 <rt_hw_cpu_shutdown+0x30>
 1081e18:	40b2                	lw	ra,12(sp)
 1081e1a:	4422                	lw	s0,8(sp)
 1081e1c:	4492                	lw	s1,4(sp)
 1081e1e:	0141                	addi	sp,sp,16
 1081e20:	8082                	ret
 1081e22:	0000                	unimp
 1081e24:	6e65                	lui	t3,0x19
 1081e26:	5f64                	lw	s1,124(a4)
 1081e28:	6c61                	lui	s8,0x18
 1081e2a:	6769                	lui	a4,0x1a
 1081e2c:	206e                	.2byte	0x206e
 1081e2e:	203e                	.2byte	0x203e
 1081e30:	6562                	.2byte	0x6562
 1081e32:	5f6e6967          	.4byte	0x5f6e6967
 1081e36:	6c61                	lui	s8,0x18
 1081e38:	6769                	lui	a4,0x1a
 1081e3a:	006e                	c.slli	zero,0x1b
 1081e3c:	6568                	.2byte	0x6568
 1081e3e:	7061                	c.lui	zero,0xffff8
	...

01081e42 <rt_system_heap_init>:
 1081e42:	1101                	addi	sp,sp,-32
 1081e44:	ce06                	sw	ra,28(sp)
 1081e46:	cc22                	sw	s0,24(sp)
 1081e48:	ca26                	sw	s1,20(sp)
 1081e4a:	c84a                	sw	s2,16(sp)
 1081e4c:	c64e                	sw	s3,12(sp)
 1081e4e:	1000                	addi	s0,sp,32
 1081e50:	84aa                	mv	s1,a0
 1081e52:	00750913          	addi	s2,a0,7
 1081e56:	ff897913          	andi	s2,s2,-8
 1081e5a:	ff85f993          	andi	s3,a1,-8
 1081e5e:	03397f63          	bgeu	s2,s3,1081e9c <rt_system_heap_init+0x5a>
 1081e62:	41298633          	sub	a2,s3,s2
 1081e66:	85a6                	mv	a1,s1
 1081e68:	010824b7          	lui	s1,0x1082
 1081e6c:	e3c48513          	addi	a0,s1,-452 # 1081e3c <rt_hw_cpu_shutdown+0x6c>
 1081e70:	26b060ef          	jal	ra,10888da <rt_smem_init>
 1081e74:	0108e7b7          	lui	a5,0x108e
 1081e78:	a8a7a823          	sw	a0,-1392(a5) # 108da90 <system_heap>
 1081e7c:	4605                	li	a2,1
 1081e7e:	e3c48593          	addi	a1,s1,-452
 1081e82:	0108c537          	lui	a0,0x108c
 1081e86:	f7050513          	addi	a0,a0,-144 # 108bf70 <_lock>
 1081e8a:	2bd020ef          	jal	ra,1084946 <rt_mutex_init>
 1081e8e:	40f2                	lw	ra,28(sp)
 1081e90:	4462                	lw	s0,24(sp)
 1081e92:	44d2                	lw	s1,20(sp)
 1081e94:	4942                	lw	s2,16(sp)
 1081e96:	49b2                	lw	s3,12(sp)
 1081e98:	6105                	addi	sp,sp,32
 1081e9a:	8082                	ret
 1081e9c:	6aa00613          	li	a2,1706
 1081ea0:	010825b7          	lui	a1,0x1082
 1081ea4:	24058593          	addi	a1,a1,576 # 1082240 <__FUNCTION__.1>
 1081ea8:	01082537          	lui	a0,0x1082
 1081eac:	e2450513          	addi	a0,a0,-476 # 1081e24 <rt_hw_cpu_shutdown+0x54>
 1081eb0:	3541                	jal	1081d30 <rt_assert_handler>
 1081eb2:	bf45                	j	1081e62 <rt_system_heap_init+0x20>
 1081eb4:	656c                	.2byte	0x656c
 1081eb6:	6576                	.2byte	0x6576
 1081eb8:	206c                	.2byte	0x206c
 1081eba:	3d3d                	jal	1081cf8 <rt_assert_set_hook+0x16>
 1081ebc:	5220                	lw	s0,96(a2)
 1081ebe:	5f54                	lw	a3,60(a4)
 1081ec0:	4f45                	li	t5,17
 1081ec2:	4b 00             	Address 0x0000000001081ec2 is out of bounds.


01081ec4 <rt_free>:
 1081ec4:	1141                	addi	sp,sp,-16
 1081ec6:	c606                	sw	ra,12(sp)
 1081ec8:	c422                	sw	s0,8(sp)
 1081eca:	c226                	sw	s1,4(sp)
 1081ecc:	c04a                	sw	s2,0(sp)
 1081ece:	0800                	addi	s0,sp,16
 1081ed0:	84aa                	mv	s1,a0
 1081ed2:	0108e7b7          	lui	a5,0x108e
 1081ed6:	a887a783          	lw	a5,-1400(a5) # 108da88 <rt_free_hook>
 1081eda:	c391                	beqz	a5,1081ede <rt_free+0x1a>
 1081edc:	9782                	jalr	a5
 1081ede:	c895                	beqz	s1,1081f12 <rt_free+0x4e>
 1081ee0:	389040ef          	jal	ra,1086a68 <rt_thread_self>
 1081ee4:	cd0d                	beqz	a0,1081f1e <rt_free+0x5a>
 1081ee6:	55fd                	li	a1,-1
 1081ee8:	0108c537          	lui	a0,0x108c
 1081eec:	f7050513          	addi	a0,a0,-144 # 108bf70 <_lock>
 1081ef0:	703020ef          	jal	ra,1084df2 <rt_mutex_take>
 1081ef4:	892a                	mv	s2,a0
 1081ef6:	8526                	mv	a0,s1
 1081ef8:	01c070ef          	jal	ra,1088f14 <rt_smem_free>
 1081efc:	02091363          	bnez	s2,1081f22 <rt_free+0x5e>
 1081f00:	369040ef          	jal	ra,1086a68 <rt_thread_self>
 1081f04:	c519                	beqz	a0,1081f12 <rt_free+0x4e>
 1081f06:	0108c537          	lui	a0,0x108c
 1081f0a:	f7050513          	addi	a0,a0,-144 # 108bf70 <_lock>
 1081f0e:	73d020ef          	jal	ra,1084e4a <rt_mutex_release>
 1081f12:	40b2                	lw	ra,12(sp)
 1081f14:	4422                	lw	s0,8(sp)
 1081f16:	4492                	lw	s1,4(sp)
 1081f18:	4902                	lw	s2,0(sp)
 1081f1a:	0141                	addi	sp,sp,16
 1081f1c:	8082                	ret
 1081f1e:	4901                	li	s2,0
 1081f20:	bfd9                	j	1081ef6 <rt_free+0x32>
 1081f22:	64900613          	li	a2,1609
 1081f26:	010825b7          	lui	a1,0x1082
 1081f2a:	23058593          	addi	a1,a1,560 # 1082230 <__FUNCTION__.0>
 1081f2e:	01082537          	lui	a0,0x1082
 1081f32:	eb450513          	addi	a0,a0,-332 # 1081eb4 <rt_system_heap_init+0x72>
 1081f36:	3bed                	jal	1081d30 <rt_assert_handler>
 1081f38:	b7e1                	j	1081f00 <rt_free+0x3c>

01081f3a <rt_free_align>:
 1081f3a:	cd01                	beqz	a0,1081f52 <rt_free_align+0x18>
 1081f3c:	1141                	addi	sp,sp,-16
 1081f3e:	c606                	sw	ra,12(sp)
 1081f40:	c422                	sw	s0,8(sp)
 1081f42:	0800                	addi	s0,sp,16
 1081f44:	ffc52503          	lw	a0,-4(a0)
 1081f48:	3fb5                	jal	1081ec4 <rt_free>
 1081f4a:	40b2                	lw	ra,12(sp)
 1081f4c:	4422                	lw	s0,8(sp)
 1081f4e:	0141                	addi	sp,sp,16
 1081f50:	8082                	ret
 1081f52:	8082                	ret

01081f54 <rt_realloc>:
 1081f54:	1101                	addi	sp,sp,-32
 1081f56:	ce06                	sw	ra,28(sp)
 1081f58:	cc22                	sw	s0,24(sp)
 1081f5a:	ca26                	sw	s1,20(sp)
 1081f5c:	c84a                	sw	s2,16(sp)
 1081f5e:	c64e                	sw	s3,12(sp)
 1081f60:	1000                	addi	s0,sp,32
 1081f62:	84aa                	mv	s1,a0
 1081f64:	892e                	mv	s2,a1
 1081f66:	303040ef          	jal	ra,1086a68 <rt_thread_self>
 1081f6a:	c529                	beqz	a0,1081fb4 <rt_realloc+0x60>
 1081f6c:	55fd                	li	a1,-1
 1081f6e:	0108c537          	lui	a0,0x108c
 1081f72:	f7050513          	addi	a0,a0,-144 # 108bf70 <_lock>
 1081f76:	67d020ef          	jal	ra,1084df2 <rt_mutex_take>
 1081f7a:	89aa                	mv	s3,a0
 1081f7c:	864a                	mv	a2,s2
 1081f7e:	85a6                	mv	a1,s1
 1081f80:	0108e7b7          	lui	a5,0x108e
 1081f84:	a907a503          	lw	a0,-1392(a5) # 108da90 <system_heap>
 1081f88:	14c070ef          	jal	ra,10890d4 <rt_smem_realloc>
 1081f8c:	84aa                	mv	s1,a0
 1081f8e:	02099563          	bnez	s3,1081fb8 <rt_realloc+0x64>
 1081f92:	2d7040ef          	jal	ra,1086a68 <rt_thread_self>
 1081f96:	c519                	beqz	a0,1081fa4 <rt_realloc+0x50>
 1081f98:	0108c537          	lui	a0,0x108c
 1081f9c:	f7050513          	addi	a0,a0,-144 # 108bf70 <_lock>
 1081fa0:	6ab020ef          	jal	ra,1084e4a <rt_mutex_release>
 1081fa4:	8526                	mv	a0,s1
 1081fa6:	40f2                	lw	ra,28(sp)
 1081fa8:	4462                	lw	s0,24(sp)
 1081faa:	44d2                	lw	s1,20(sp)
 1081fac:	4942                	lw	s2,16(sp)
 1081fae:	49b2                	lw	s3,12(sp)
 1081fb0:	6105                	addi	sp,sp,32
 1081fb2:	8082                	ret
 1081fb4:	4981                	li	s3,0
 1081fb6:	b7d9                	j	1081f7c <rt_realloc+0x28>
 1081fb8:	64900613          	li	a2,1609
 1081fbc:	010825b7          	lui	a1,0x1082
 1081fc0:	23058593          	addi	a1,a1,560 # 1082230 <__FUNCTION__.0>
 1081fc4:	01082537          	lui	a0,0x1082
 1081fc8:	eb450513          	addi	a0,a0,-332 # 1081eb4 <rt_system_heap_init+0x72>
 1081fcc:	3395                	jal	1081d30 <rt_assert_handler>
 1081fce:	b7d1                	j	1081f92 <rt_realloc+0x3e>

01081fd0 <rt_malloc>:
 1081fd0:	1101                	addi	sp,sp,-32
 1081fd2:	ce06                	sw	ra,28(sp)
 1081fd4:	cc22                	sw	s0,24(sp)
 1081fd6:	ca26                	sw	s1,20(sp)
 1081fd8:	c84a                	sw	s2,16(sp)
 1081fda:	c64e                	sw	s3,12(sp)
 1081fdc:	1000                	addi	s0,sp,32
 1081fde:	892a                	mv	s2,a0
 1081fe0:	289040ef          	jal	ra,1086a68 <rt_thread_self>
 1081fe4:	cd21                	beqz	a0,108203c <rt_malloc+0x6c>
 1081fe6:	55fd                	li	a1,-1
 1081fe8:	0108c537          	lui	a0,0x108c
 1081fec:	f7050513          	addi	a0,a0,-144 # 108bf70 <_lock>
 1081ff0:	603020ef          	jal	ra,1084df2 <rt_mutex_take>
 1081ff4:	89aa                	mv	s3,a0
 1081ff6:	85ca                	mv	a1,s2
 1081ff8:	0108e7b7          	lui	a5,0x108e
 1081ffc:	a907a503          	lw	a0,-1392(a5) # 108da90 <system_heap>
 1082000:	399060ef          	jal	ra,1088b98 <rt_smem_alloc>
 1082004:	84aa                	mv	s1,a0
 1082006:	02099d63          	bnez	s3,1082040 <rt_malloc+0x70>
 108200a:	25f040ef          	jal	ra,1086a68 <rt_thread_self>
 108200e:	c519                	beqz	a0,108201c <rt_malloc+0x4c>
 1082010:	0108c537          	lui	a0,0x108c
 1082014:	f7050513          	addi	a0,a0,-144 # 108bf70 <_lock>
 1082018:	633020ef          	jal	ra,1084e4a <rt_mutex_release>
 108201c:	0108e7b7          	lui	a5,0x108e
 1082020:	a8c7a783          	lw	a5,-1396(a5) # 108da8c <rt_malloc_hook>
 1082024:	c781                	beqz	a5,108202c <rt_malloc+0x5c>
 1082026:	85ca                	mv	a1,s2
 1082028:	8526                	mv	a0,s1
 108202a:	9782                	jalr	a5
 108202c:	8526                	mv	a0,s1
 108202e:	40f2                	lw	ra,28(sp)
 1082030:	4462                	lw	s0,24(sp)
 1082032:	44d2                	lw	s1,20(sp)
 1082034:	4942                	lw	s2,16(sp)
 1082036:	49b2                	lw	s3,12(sp)
 1082038:	6105                	addi	sp,sp,32
 108203a:	8082                	ret
 108203c:	4981                	li	s3,0
 108203e:	bf65                	j	1081ff6 <rt_malloc+0x26>
 1082040:	64900613          	li	a2,1609
 1082044:	010825b7          	lui	a1,0x1082
 1082048:	23058593          	addi	a1,a1,560 # 1082230 <__FUNCTION__.0>
 108204c:	01082537          	lui	a0,0x1082
 1082050:	eb450513          	addi	a0,a0,-332 # 1081eb4 <rt_system_heap_init+0x72>
 1082054:	39f1                	jal	1081d30 <rt_assert_handler>
 1082056:	bf55                	j	108200a <rt_malloc+0x3a>

01082058 <rt_strdup>:
 1082058:	1101                	addi	sp,sp,-32
 108205a:	ce06                	sw	ra,28(sp)
 108205c:	cc22                	sw	s0,24(sp)
 108205e:	ca26                	sw	s1,20(sp)
 1082060:	c84a                	sw	s2,16(sp)
 1082062:	c64e                	sw	s3,12(sp)
 1082064:	1000                	addi	s0,sp,32
 1082066:	89aa                	mv	s3,a0
 1082068:	a7cff0ef          	jal	ra,10812e4 <rt_strlen>
 108206c:	00150913          	addi	s2,a0,1
 1082070:	854a                	mv	a0,s2
 1082072:	3fb9                	jal	1081fd0 <rt_malloc>
 1082074:	84aa                	mv	s1,a0
 1082076:	c509                	beqz	a0,1082080 <rt_strdup+0x28>
 1082078:	864a                	mv	a2,s2
 108207a:	85ce                	mv	a1,s3
 108207c:	896ff0ef          	jal	ra,1081112 <rt_memcpy>
 1082080:	8526                	mv	a0,s1
 1082082:	40f2                	lw	ra,28(sp)
 1082084:	4462                	lw	s0,24(sp)
 1082086:	44d2                	lw	s1,20(sp)
 1082088:	4942                	lw	s2,16(sp)
 108208a:	49b2                	lw	s3,12(sp)
 108208c:	6105                	addi	sp,sp,32
 108208e:	8082                	ret

01082090 <rt_calloc>:
 1082090:	1141                	addi	sp,sp,-16
 1082092:	c606                	sw	ra,12(sp)
 1082094:	c422                	sw	s0,8(sp)
 1082096:	c226                	sw	s1,4(sp)
 1082098:	c04a                	sw	s2,0(sp)
 108209a:	0800                	addi	s0,sp,16
 108209c:	02b50933          	mul	s2,a0,a1
 10820a0:	854a                	mv	a0,s2
 10820a2:	373d                	jal	1081fd0 <rt_malloc>
 10820a4:	84aa                	mv	s1,a0
 10820a6:	c509                	beqz	a0,10820b0 <rt_calloc+0x20>
 10820a8:	864a                	mv	a2,s2
 10820aa:	4581                	li	a1,0
 10820ac:	ff1fe0ef          	jal	ra,108109c <rt_memset>
 10820b0:	8526                	mv	a0,s1
 10820b2:	40b2                	lw	ra,12(sp)
 10820b4:	4422                	lw	s0,8(sp)
 10820b6:	4492                	lw	s1,4(sp)
 10820b8:	4902                	lw	s2,0(sp)
 10820ba:	0141                	addi	sp,sp,16
 10820bc:	8082                	ret

010820be <rt_malloc_align>:
 10820be:	1141                	addi	sp,sp,-16
 10820c0:	c606                	sw	ra,12(sp)
 10820c2:	c422                	sw	s0,8(sp)
 10820c4:	c226                	sw	s1,4(sp)
 10820c6:	0800                	addi	s0,sp,16
 10820c8:	00358493          	addi	s1,a1,3
 10820cc:	98f1                	andi	s1,s1,-4
 10820ce:	050d                	addi	a0,a0,3
 10820d0:	9971                	andi	a0,a0,-4
 10820d2:	9526                	add	a0,a0,s1
 10820d4:	3df5                	jal	1081fd0 <rt_malloc>
 10820d6:	c909                	beqz	a0,10820e8 <rt_malloc_align+0x2a>
 10820d8:	fff48793          	addi	a5,s1,-1
 10820dc:	872a                	mv	a4,a0
 10820de:	8fe9                	and	a5,a5,a0
 10820e0:	eb89                	bnez	a5,10820f2 <rt_malloc_align+0x34>
 10820e2:	9526                	add	a0,a0,s1
 10820e4:	fee52e23          	sw	a4,-4(a0)
 10820e8:	40b2                	lw	ra,12(sp)
 10820ea:	4422                	lw	s0,8(sp)
 10820ec:	4492                	lw	s1,4(sp)
 10820ee:	0141                	addi	sp,sp,16
 10820f0:	8082                	ret
 10820f2:	9526                	add	a0,a0,s1
 10820f4:	157d                	addi	a0,a0,-1
 10820f6:	409004b3          	neg	s1,s1
 10820fa:	8d65                	and	a0,a0,s1
 10820fc:	b7e5                	j	10820e4 <rt_malloc_align+0x26>

010820fe <rt_memory_info>:
 10820fe:	1101                	addi	sp,sp,-32
 1082100:	ce06                	sw	ra,28(sp)
 1082102:	cc22                	sw	s0,24(sp)
 1082104:	ca26                	sw	s1,20(sp)
 1082106:	c84a                	sw	s2,16(sp)
 1082108:	c64e                	sw	s3,12(sp)
 108210a:	1000                	addi	s0,sp,32
 108210c:	89aa                	mv	s3,a0
 108210e:	892e                	mv	s2,a1
 1082110:	84b2                	mv	s1,a2
 1082112:	157040ef          	jal	ra,1086a68 <rt_thread_self>
 1082116:	c135                	beqz	a0,108217a <rt_memory_info+0x7c>
 1082118:	55fd                	li	a1,-1
 108211a:	0108c537          	lui	a0,0x108c
 108211e:	f7050513          	addi	a0,a0,-144 # 108bf70 <_lock>
 1082122:	4d1020ef          	jal	ra,1084df2 <rt_mutex_take>
 1082126:	00098963          	beqz	s3,1082138 <rt_memory_info+0x3a>
 108212a:	0108e7b7          	lui	a5,0x108e
 108212e:	a907a783          	lw	a5,-1392(a5) # 108da90 <system_heap>
 1082132:	4fdc                	lw	a5,28(a5)
 1082134:	00f9a023          	sw	a5,0(s3)
 1082138:	00090963          	beqz	s2,108214a <rt_memory_info+0x4c>
 108213c:	0108e7b7          	lui	a5,0x108e
 1082140:	a907a783          	lw	a5,-1392(a5) # 108da90 <system_heap>
 1082144:	539c                	lw	a5,32(a5)
 1082146:	00f92023          	sw	a5,0(s2) # 18000 <__fw_size__+0x30c8>
 108214a:	c499                	beqz	s1,1082158 <rt_memory_info+0x5a>
 108214c:	0108e7b7          	lui	a5,0x108e
 1082150:	a907a783          	lw	a5,-1392(a5) # 108da90 <system_heap>
 1082154:	53dc                	lw	a5,36(a5)
 1082156:	c09c                	sw	a5,0(s1)
 1082158:	e11d                	bnez	a0,108217e <rt_memory_info+0x80>
 108215a:	10f040ef          	jal	ra,1086a68 <rt_thread_self>
 108215e:	c519                	beqz	a0,108216c <rt_memory_info+0x6e>
 1082160:	0108c537          	lui	a0,0x108c
 1082164:	f7050513          	addi	a0,a0,-144 # 108bf70 <_lock>
 1082168:	4e3020ef          	jal	ra,1084e4a <rt_mutex_release>
 108216c:	40f2                	lw	ra,28(sp)
 108216e:	4462                	lw	s0,24(sp)
 1082170:	44d2                	lw	s1,20(sp)
 1082172:	4942                	lw	s2,16(sp)
 1082174:	49b2                	lw	s3,12(sp)
 1082176:	6105                	addi	sp,sp,32
 1082178:	8082                	ret
 108217a:	4501                	li	a0,0
 108217c:	b76d                	j	1082126 <rt_memory_info+0x28>
 108217e:	64900613          	li	a2,1609
 1082182:	010825b7          	lui	a1,0x1082
 1082186:	23058593          	addi	a1,a1,560 # 1082230 <__FUNCTION__.0>
 108218a:	01082537          	lui	a0,0x1082
 108218e:	eb450513          	addi	a0,a0,-332 # 1081eb4 <rt_system_heap_init+0x72>
 1082192:	3e79                	jal	1081d30 <rt_assert_handler>
 1082194:	b7d9                	j	108215a <rt_memory_info+0x5c>
 1082196:	0000                	unimp
 1082198:	20204b4f          	.4byte	0x20204b4f
 108219c:	2020                	.2byte	0x2020
 108219e:	0020                	addi	s0,sp,8
 10821a0:	5245                	li	tp,-15
 10821a2:	4f52                	lw	t5,20(sp)
 10821a4:	2052                	.2byte	0x2052
 10821a6:	0020                	addi	s0,sp,8
 10821a8:	5445                	li	s0,-15
 10821aa:	4d49                	li	s10,18
 10821ac:	0054554f          	.4byte	0x54554f
 10821b0:	5245                	li	tp,-15
 10821b2:	4c554653          	.4byte	0x4c554653
 10821b6:	004c                	addi	a1,sp,4
 10821b8:	5245                	li	tp,-15
 10821ba:	54504553          	.4byte	0x54504553
 10821be:	0059                	c.nop	22
 10821c0:	4e45                	li	t3,17
 10821c2:	4d454d4f          	.4byte	0x4d454d4f
 10821c6:	0020                	addi	s0,sp,8
 10821c8:	4e45                	li	t3,17
 10821ca:	5359534f          	.4byte	0x5359534f
 10821ce:	0020                	addi	s0,sp,8
 10821d0:	4245                	li	tp,17
 10821d2:	5355                	li	t1,-11
 10821d4:	2059                	jal	108225a <__FUNCTION__.5+0x6>
 10821d6:	0020                	addi	s0,sp,8
 10821d8:	4945                	li	s2,17
 10821da:	2020204f          	.4byte	0x2020204f
 10821de:	0020                	addi	s0,sp,8
 10821e0:	4945                	li	s2,17
 10821e2:	544e                	lw	s0,240(sp)
 10821e4:	5052                	.2byte	0x5052
 10821e6:	0054                	addi	a3,sp,4
 10821e8:	4945                	li	s2,17
 10821ea:	564e                	lw	a2,240(sp)
 10821ec:	4c41                	li	s8,16
 10821ee:	0020                	addi	s0,sp,8
 10821f0:	4e45                	li	t3,17
 10821f2:	544e454f          	.4byte	0x544e454f
 10821f6:	0020                	addi	s0,sp,8
 10821f8:	4e45                	li	t3,17
 10821fa:	4350534f          	.4byte	0x4350534f
 10821fe:	0020                	addi	s0,sp,8
 1082200:	5045                	c.li	zero,-15
 1082202:	5245                	li	tp,-15
 1082204:	204d                	jal	10822a6 <__lowest_bit_bitmap+0x3e>
 1082206:	0020                	addi	s0,sp,8
 1082208:	5445                	li	s0,-15
 108220a:	4152                	lw	sp,20(sp)
 108220c:	2050                	.2byte	0x2050
 108220e:	0020                	addi	s0,sp,8
	...

01082230 <__FUNCTION__.0>:
 1082230:	685f 6165 5f70 6e75 6f6c 6b63 0000 0000     _heap_unlock....

01082240 <__FUNCTION__.1>:
 1082240:	7472 735f 7379 6574 5f6d 6568 7061 695f     rt_system_heap_i
 1082250:	696e 0074                                   nit.

01082254 <__FUNCTION__.5>:
 1082254:	7472 685f 5f77 7063 5f75 6873 7475 6f64     rt_hw_cpu_shutdo
 1082264:	6e77 0000                                   wn..

01082268 <__lowest_bit_bitmap>:
 1082268:	0000 0001 0002 0001 0003 0001 0002 0001     ................
 1082278:	0004 0001 0002 0001 0003 0001 0002 0001     ................
 1082288:	0005 0001 0002 0001 0003 0001 0002 0001     ................
 1082298:	0004 0001 0002 0001 0003 0001 0002 0001     ................
 10822a8:	0006 0001 0002 0001 0003 0001 0002 0001     ................
 10822b8:	0004 0001 0002 0001 0003 0001 0002 0001     ................
 10822c8:	0005 0001 0002 0001 0003 0001 0002 0001     ................
 10822d8:	0004 0001 0002 0001 0003 0001 0002 0001     ................
 10822e8:	0007 0001 0002 0001 0003 0001 0002 0001     ................
 10822f8:	0004 0001 0002 0001 0003 0001 0002 0001     ................
 1082308:	0005 0001 0002 0001 0003 0001 0002 0001     ................
 1082318:	0004 0001 0002 0001 0003 0001 0002 0001     ................
 1082328:	0006 0001 0002 0001 0003 0001 0002 0001     ................
 1082338:	0004 0001 0002 0001 0003 0001 0002 0001     ................
 1082348:	0005 0001 0002 0001 0003 0001 0002 0001     ................
 1082358:	0004 0001 0002 0001 0003 0001 0002 0001     ................

01082368 <large_digits.4>:
 1082368:	3130 3332 3534 3736 3938 4241 4443 4645     0123456789ABCDEF
 1082378:	0000 0000                                   ....

0108237c <rt_errno_strs>:
 108237c:	0000 0000 2198 0108 00ff 0000 21a0 0108     .....!.......!..
 108238c:	0074 0000 21a8 0108 001c 0000 21b0 0108     t....!.......!..
 108239c:	003d 0000 21b8 0108 000c 0000 21c0 0108     =....!.......!..
 10823ac:	0058 0000 21c8 0108 0010 0000 21d0 0108     X....!.......!..
 10823bc:	0005 0000 21d8 0108 0004 0000 21e0 0108     .....!.......!..
 10823cc:	0016 0000 21e8 0108 0002 0000 21f0 0108     .....!.......!..
 10823dc:	001c 0000 21f8 0108 0001 0000 2200 0108     .....!......."..
 10823ec:	00fe 0000 2208 0108                         ....."..

010823f4 <small_digits.3>:
 10823f4:	3130 3332 3534 3736 3938 6261 6463 6665     0123456789abcdef
 1082404:	0000 1141 c622 0800 4432 0141 8082          ..A."...2DA...

01082412 <mswi_isr>:
 1082412:	1141                	addi	sp,sp,-16
 1082414:	c622                	sw	s0,12(sp)
 1082416:	0800                	addi	s0,sp,16
 1082418:	4432                	lw	s0,12(sp)
 108241a:	0141                	addi	sp,sp,16
 108241c:	8082                	ret

0108241e <syscall_handler>:
 108241e:	1141                	addi	sp,sp,-16
 1082420:	c622                	sw	s0,12(sp)
 1082422:	0800                	addi	s0,sp,16
 1082424:	4432                	lw	s0,12(sp)
 1082426:	0141                	addi	sp,sp,16
 1082428:	8082                	ret

0108242a <trap_entry>:
 108242a:	1101                	addi	sp,sp,-32
 108242c:	ce06                	sw	ra,28(sp)
 108242e:	cc22                	sw	s0,24(sp)
 1082430:	ca26                	sw	s1,20(sp)
 1082432:	c84a                	sw	s2,16(sp)
 1082434:	c64e                	sw	s3,12(sp)
 1082436:	1000                	addi	s0,sp,32
 1082438:	34202773          	csrr	a4,mcause
 108243c:	341024f3          	csrr	s1,mepc
 1082440:	30002973          	csrr	s2,mstatus
 1082444:	6785                	lui	a5,0x1
 1082446:	17fd                	addi	a5,a5,-1 # fff <__boot_header_length__+0xf6f>
 1082448:	8ff9                	and	a5,a5,a4
 108244a:	02074763          	bltz	a4,1082478 <trap_entry+0x4e>
 108244e:	46ad                	li	a3,11
 1082450:	06d79a63          	bne	a5,a3,10824c4 <trap_entry+0x9a>
 1082454:	8736                	mv	a4,a3
 1082456:	86b2                	mv	a3,a2
 1082458:	862e                	mv	a2,a1
 108245a:	85aa                	mv	a1,a0
 108245c:	8546                	mv	a0,a7
 108245e:	37c1                	jal	108241e <syscall_handler>
 1082460:	0491                	addi	s1,s1,4
 1082462:	30091073          	csrw	mstatus,s2
 1082466:	34149073          	csrw	mepc,s1
 108246a:	40f2                	lw	ra,28(sp)
 108246c:	4462                	lw	s0,24(sp)
 108246e:	44d2                	lw	s1,20(sp)
 1082470:	4942                	lw	s2,16(sp)
 1082472:	49b2                	lw	s3,12(sp)
 1082474:	6105                	addi	sp,sp,32
 1082476:	8082                	ret
 1082478:	471d                	li	a4,7
 108247a:	00e78e63          	beq	a5,a4,1082496 <trap_entry+0x6c>
 108247e:	472d                	li	a4,11
 1082480:	00e78e63          	beq	a5,a4,108249c <trap_entry+0x72>
 1082484:	470d                	li	a4,3
 1082486:	fce79ee3          	bne	a5,a4,1082462 <trap_entry+0x38>
 108248a:	3761                	jal	1082412 <mswi_isr>
 108248c:	e66007b7          	lui	a5,0xe6600
 1082490:	4705                	li	a4,1
 1082492:	c3d8                	sw	a4,4(a5)
 1082494:	b7f9                	j	1082462 <trap_entry+0x38>
 1082496:	d6bfd0ef          	jal	ra,1080200 <mchtmr_isr>
 108249a:	b7e1                	j	1082462 <trap_entry+0x38>
 108249c:	e42007b7          	lui	a5,0xe4200
 10824a0:	0047a983          	lw	s3,4(a5) # e4200004 <__etext+0x641e8554>
 10824a4:	fa098fe3          	beqz	s3,1082462 <trap_entry+0x38>
 10824a8:	010807b7          	lui	a5,0x1080
 10824ac:	00299713          	slli	a4,s3,0x2
 10824b0:	00078793          	mv	a5,a5
 10824b4:	97ba                	add	a5,a5,a4
 10824b6:	439c                	lw	a5,0(a5)
 10824b8:	9782                	jalr	a5
 10824ba:	e42007b7          	lui	a5,0xe4200
 10824be:	0137a223          	sw	s3,4(a5) # e4200004 <__etext+0x641e8554>
 10824c2:	b745                	j	1082462 <trap_entry+0x38>
 10824c4:	85a6                	mv	a1,s1
 10824c6:	853a                	mv	a0,a4
 10824c8:	7ef8a097          	auipc	ra,0x7ef8a
 10824cc:	35c080e7          	jalr	860(ra) # 8000c824 <hpm_rtt_exception_handler>
 10824d0:	84aa                	mv	s1,a0
 10824d2:	bf41                	j	1082462 <trap_entry+0x38>

010824d4 <rt_thread_idle_sethook>:
 10824d4:	1141                	addi	sp,sp,-16
 10824d6:	c606                	sw	ra,12(sp)
 10824d8:	c422                	sw	s0,8(sp)
 10824da:	c226                	sw	s1,4(sp)
 10824dc:	0800                	addi	s0,sp,16
 10824de:	84aa                	mv	s1,a0
 10824e0:	840fe0ef          	jal	ra,1080520 <__ramfunc_start__>
 10824e4:	4701                	li	a4,0
 10824e6:	478d                	li	a5,3
 10824e8:	02e7e563          	bltu	a5,a4,1082512 <rt_thread_idle_sethook+0x3e>
 10824ec:	00271693          	slli	a3,a4,0x2
 10824f0:	0108c7b7          	lui	a5,0x108c
 10824f4:	cd078793          	addi	a5,a5,-816 # 108bcd0 <__ramfunc_end__>
 10824f8:	97b6                	add	a5,a5,a3
 10824fa:	439c                	lw	a5,0(a5)
 10824fc:	c399                	beqz	a5,1082502 <rt_thread_idle_sethook+0x2e>
 10824fe:	0705                	addi	a4,a4,1 # 1a001 <__fw_size__+0x50c9>
 1082500:	b7dd                	j	10824e6 <rt_thread_idle_sethook+0x12>
 1082502:	0108c7b7          	lui	a5,0x108c
 1082506:	cd078793          	addi	a5,a5,-816 # 108bcd0 <__ramfunc_end__>
 108250a:	97b6                	add	a5,a5,a3
 108250c:	c384                	sw	s1,0(a5)
 108250e:	4481                	li	s1,0
 1082510:	a011                	j	1082514 <rt_thread_idle_sethook+0x40>
 1082512:	5491                	li	s1,-28
 1082514:	812fe0ef          	jal	ra,1080526 <rt_hw_interrupt_enable>
 1082518:	8526                	mv	a0,s1
 108251a:	40b2                	lw	ra,12(sp)
 108251c:	4422                	lw	s0,8(sp)
 108251e:	4492                	lw	s1,4(sp)
 1082520:	0141                	addi	sp,sp,16
 1082522:	8082                	ret

01082524 <rt_thread_idle_delhook>:
 1082524:	1141                	addi	sp,sp,-16
 1082526:	c606                	sw	ra,12(sp)
 1082528:	c422                	sw	s0,8(sp)
 108252a:	c226                	sw	s1,4(sp)
 108252c:	0800                	addi	s0,sp,16
 108252e:	84aa                	mv	s1,a0
 1082530:	ff1fd0ef          	jal	ra,1080520 <__ramfunc_start__>
 1082534:	4701                	li	a4,0
 1082536:	478d                	li	a5,3
 1082538:	02e7e763          	bltu	a5,a4,1082566 <rt_thread_idle_delhook+0x42>
 108253c:	00271693          	slli	a3,a4,0x2
 1082540:	0108c7b7          	lui	a5,0x108c
 1082544:	cd078793          	addi	a5,a5,-816 # 108bcd0 <__ramfunc_end__>
 1082548:	97b6                	add	a5,a5,a3
 108254a:	439c                	lw	a5,0(a5)
 108254c:	00978463          	beq	a5,s1,1082554 <rt_thread_idle_delhook+0x30>
 1082550:	0705                	addi	a4,a4,1
 1082552:	b7d5                	j	1082536 <rt_thread_idle_delhook+0x12>
 1082554:	0108c7b7          	lui	a5,0x108c
 1082558:	cd078793          	addi	a5,a5,-816 # 108bcd0 <__ramfunc_end__>
 108255c:	97b6                	add	a5,a5,a3
 108255e:	0007a023          	sw	zero,0(a5)
 1082562:	4481                	li	s1,0
 1082564:	a019                	j	108256a <rt_thread_idle_delhook+0x46>
 1082566:	fa800493          	li	s1,-88
 108256a:	fbdfd0ef          	jal	ra,1080526 <rt_hw_interrupt_enable>
 108256e:	8526                	mv	a0,s1
 1082570:	40b2                	lw	ra,12(sp)
 1082572:	4422                	lw	s0,8(sp)
 1082574:	4492                	lw	s1,4(sp)
 1082576:	0141                	addi	sp,sp,16
 1082578:	8082                	ret

0108257a <rt_thread_defunct_enqueue>:
 108257a:	1141                	addi	sp,sp,-16
 108257c:	c622                	sw	s0,12(sp)
 108257e:	0800                	addi	s0,sp,16
 1082580:	01450713          	addi	a4,a0,20
 1082584:	c6418793          	addi	a5,gp,-924 # 108dfa4 <_rt_thread_defunct>
 1082588:	4394                	lw	a3,0(a5)
 108258a:	c2d8                	sw	a4,4(a3)
 108258c:	c954                	sw	a3,20(a0)
 108258e:	c398                	sw	a4,0(a5)
 1082590:	cd1c                	sw	a5,24(a0)
 1082592:	4432                	lw	s0,12(sp)
 1082594:	0141                	addi	sp,sp,16
 1082596:	8082                	ret

01082598 <rt_thread_defunct_dequeue>:
 1082598:	1141                	addi	sp,sp,-16
 108259a:	c606                	sw	ra,12(sp)
 108259c:	c422                	sw	s0,8(sp)
 108259e:	c226                	sw	s1,4(sp)
 10825a0:	c04a                	sw	s2,0(sp)
 10825a2:	0800                	addi	s0,sp,16
 10825a4:	c6418793          	addi	a5,gp,-924 # 108dfa4 <_rt_thread_defunct>
 10825a8:	4384                	lw	s1,0(a5)
 10825aa:	02f48663          	beq	s1,a5,10825d6 <rt_thread_defunct_dequeue+0x3e>
 10825ae:	fec48913          	addi	s2,s1,-20
 10825b2:	f6ffd0ef          	jal	ra,1080520 <__ramfunc_start__>
 10825b6:	4098                	lw	a4,0(s1)
 10825b8:	40dc                	lw	a5,4(s1)
 10825ba:	c35c                	sw	a5,4(a4)
 10825bc:	4098                	lw	a4,0(s1)
 10825be:	c398                	sw	a4,0(a5)
 10825c0:	c0c4                	sw	s1,4(s1)
 10825c2:	c084                	sw	s1,0(s1)
 10825c4:	f63fd0ef          	jal	ra,1080526 <rt_hw_interrupt_enable>
 10825c8:	854a                	mv	a0,s2
 10825ca:	40b2                	lw	ra,12(sp)
 10825cc:	4422                	lw	s0,8(sp)
 10825ce:	4492                	lw	s1,4(sp)
 10825d0:	4902                	lw	s2,0(sp)
 10825d2:	0141                	addi	sp,sp,16
 10825d4:	8082                	ret
 10825d6:	4901                	li	s2,0
 10825d8:	bfc5                	j	10825c8 <rt_thread_defunct_dequeue+0x30>

010825da <rt_defunct_execute>:
 10825da:	1101                	addi	sp,sp,-32
 10825dc:	ce06                	sw	ra,28(sp)
 10825de:	cc22                	sw	s0,24(sp)
 10825e0:	ca26                	sw	s1,20(sp)
 10825e2:	c84a                	sw	s2,16(sp)
 10825e4:	c64e                	sw	s3,12(sp)
 10825e6:	1000                	addi	s0,sp,32
 10825e8:	a039                	j	10825f6 <rt_defunct_execute+0x1c>
 10825ea:	8526                	mv	a0,s1
 10825ec:	1ca050ef          	jal	ra,10877b6 <rt_object_detach>
 10825f0:	a831                	j	108260c <rt_defunct_execute+0x32>
 10825f2:	02090263          	beqz	s2,1082616 <rt_defunct_execute+0x3c>
 10825f6:	374d                	jal	1082598 <rt_thread_defunct_dequeue>
 10825f8:	c515                	beqz	a0,1082624 <rt_defunct_execute+0x4a>
 10825fa:	84aa                	mv	s1,a0
 10825fc:	08452983          	lw	s3,132(a0)
 1082600:	3a4050ef          	jal	ra,10879a4 <rt_object_is_systemobject>
 1082604:	892a                	mv	s2,a0
 1082606:	4785                	li	a5,1
 1082608:	fef501e3          	beq	a0,a5,10825ea <rt_defunct_execute+0x10>
 108260c:	fe0983e3          	beqz	s3,10825f2 <rt_defunct_execute+0x18>
 1082610:	8526                	mv	a0,s1
 1082612:	9982                	jalr	s3
 1082614:	bff9                	j	10825f2 <rt_defunct_execute+0x18>
 1082616:	5488                	lw	a0,40(s1)
 1082618:	8adff0ef          	jal	ra,1081ec4 <rt_free>
 108261c:	8526                	mv	a0,s1
 108261e:	300050ef          	jal	ra,108791e <rt_object_delete>
 1082622:	bfd1                	j	10825f6 <rt_defunct_execute+0x1c>
 1082624:	40f2                	lw	ra,28(sp)
 1082626:	4462                	lw	s0,24(sp)
 1082628:	44d2                	lw	s1,20(sp)
 108262a:	4942                	lw	s2,16(sp)
 108262c:	49b2                	lw	s3,12(sp)
 108262e:	6105                	addi	sp,sp,32
 1082630:	8082                	ret

01082632 <idle_thread_entry>:
 1082632:	1141                	addi	sp,sp,-16
 1082634:	c606                	sw	ra,12(sp)
 1082636:	c422                	sw	s0,8(sp)
 1082638:	c226                	sw	s1,4(sp)
 108263a:	0800                	addi	s0,sp,16
 108263c:	a00d                	j	108265e <idle_thread_entry+0x2c>
 108263e:	0485                	addi	s1,s1,1
 1082640:	478d                	li	a5,3
 1082642:	0097ed63          	bltu	a5,s1,108265c <idle_thread_entry+0x2a>
 1082646:	00249713          	slli	a4,s1,0x2
 108264a:	0108c7b7          	lui	a5,0x108c
 108264e:	cd078793          	addi	a5,a5,-816 # 108bcd0 <__ramfunc_end__>
 1082652:	97ba                	add	a5,a5,a4
 1082654:	439c                	lw	a5,0(a5)
 1082656:	d7e5                	beqz	a5,108263e <idle_thread_entry+0xc>
 1082658:	9782                	jalr	a5
 108265a:	b7d5                	j	108263e <idle_thread_entry+0xc>
 108265c:	3fbd                	jal	10825da <rt_defunct_execute>
 108265e:	4481                	li	s1,0
 1082660:	b7c5                	j	1082640 <idle_thread_entry+0xe>
 1082662:	0000                	unimp
 1082664:	6974                	.2byte	0x6974
 1082666:	6c64                	.2byte	0x6c64
 1082668:	2565                	jal	1082d10 <_rt_mutex_take+0x388>
 108266a:	0064                	addi	s1,sp,12

0108266c <rt_thread_idle_init>:
 108266c:	1101                	addi	sp,sp,-32
 108266e:	ce06                	sw	ra,28(sp)
 1082670:	cc22                	sw	s0,24(sp)
 1082672:	ca26                	sw	s1,20(sp)
 1082674:	c84a                	sw	s2,16(sp)
 1082676:	1000                	addi	s0,sp,32
 1082678:	4481                	li	s1,0
 108267a:	c499                	beqz	s1,1082688 <rt_thread_idle_init+0x1c>
 108267c:	40f2                	lw	ra,28(sp)
 108267e:	4462                	lw	s0,24(sp)
 1082680:	44d2                	lw	s1,20(sp)
 1082682:	4942                	lw	s2,16(sp)
 1082684:	6105                	addi	sp,sp,32
 1082686:	8082                	ret
 1082688:	86a6                	mv	a3,s1
 108268a:	01082637          	lui	a2,0x1082
 108268e:	66460613          	addi	a2,a2,1636 # 1082664 <idle_thread_entry+0x32>
 1082692:	45a1                	li	a1,8
 1082694:	fe840513          	addi	a0,s0,-24 # 19fe8 <__fw_size__+0x50b0>
 1082698:	9bcff0ef          	jal	ra,1081854 <rt_snprintf>
 108269c:	08c00793          	li	a5,140
 10826a0:	02f487b3          	mul	a5,s1,a5
 10826a4:	0108c937          	lui	s2,0x108c
 10826a8:	ce090913          	addi	s2,s2,-800 # 108bce0 <idle_thread>
 10826ac:	993e                	add	s2,s2,a5
 10826ae:	00949693          	slli	a3,s1,0x9
 10826b2:	02000893          	li	a7,32
 10826b6:	487d                	li	a6,31
 10826b8:	20000793          	li	a5,512
 10826bc:	0108c737          	lui	a4,0x108c
 10826c0:	d7070713          	addi	a4,a4,-656 # 108bd70 <idle_thread_stack>
 10826c4:	9736                	add	a4,a4,a3
 10826c6:	4681                	li	a3,0
 10826c8:	01082637          	lui	a2,0x1082
 10826cc:	63260613          	addi	a2,a2,1586 # 1082632 <idle_thread_entry>
 10826d0:	fe840593          	addi	a1,s0,-24
 10826d4:	854a                	mv	a0,s2
 10826d6:	2fa040ef          	jal	ra,10869d0 <rt_thread_init>
 10826da:	854a                	mv	a0,s2
 10826dc:	3cd040ef          	jal	ra,10872a8 <rt_thread_startup>
 10826e0:	0485                	addi	s1,s1,1
 10826e2:	bf61                	j	108267a <rt_thread_idle_init+0xe>

010826e4 <rt_thread_idle_gethandler>:
 10826e4:	1141                	addi	sp,sp,-16
 10826e6:	c622                	sw	s0,12(sp)
 10826e8:	0800                	addi	s0,sp,16
 10826ea:	0108c537          	lui	a0,0x108c
 10826ee:	ce050513          	addi	a0,a0,-800 # 108bce0 <idle_thread>
 10826f2:	4432                	lw	s0,12(sp)
 10826f4:	0141                	addi	sp,sp,16
 10826f6:	8082                	ret

010826f8 <_thread_update_priority>:
 10826f8:	7139                	addi	sp,sp,-64
 10826fa:	de06                	sw	ra,60(sp)
 10826fc:	dc22                	sw	s0,56(sp)
 10826fe:	da26                	sw	s1,52(sp)
 1082700:	d84a                	sw	s2,48(sp)
 1082702:	d64e                	sw	s3,44(sp)
 1082704:	d452                	sw	s4,40(sp)
 1082706:	d256                	sw	s5,36(sp)
 1082708:	d05a                	sw	s6,32(sp)
 108270a:	0080                	addi	s0,sp,64
 108270c:	84aa                	mv	s1,a0
 108270e:	8a32                	mv	s4,a2
 1082710:	fcb407a3          	sb	a1,-49(s0)
 1082714:	fcf40613          	addi	a2,s0,-49
 1082718:	4589                	li	a1,2
 108271a:	42f040ef          	jal	ra,1087348 <rt_thread_control>
 108271e:	8aaa                	mv	s5,a0
 1082720:	a035                	j	108274c <_thread_update_priority+0x54>
 1082722:	85d2                	mv	a1,s4
 1082724:	8526                	mv	a0,s1
 1082726:	68a040ef          	jal	ra,1086db0 <rt_thread_suspend_with_flag>
 108272a:	c535                	beqz	a0,1082796 <_thread_update_priority+0x9e>
 108272c:	8aaa                	mv	s5,a0
 108272e:	a829                	j	1082748 <_thread_update_priority+0x50>
 1082730:	01448793          	addi	a5,s1,20
 1082734:	0049a703          	lw	a4,4(s3)
 1082738:	c31c                	sw	a5,0(a4)
 108273a:	0049a703          	lw	a4,4(s3)
 108273e:	cc98                	sw	a4,24(s1)
 1082740:	00f9a223          	sw	a5,4(s3)
 1082744:	0134aa23          	sw	s3,20(s1)
 1082748:	0a0a8c63          	beqz	s5,1082800 <_thread_update_priority+0x108>
 108274c:	100a9d63          	bnez	s5,1082866 <_thread_update_priority+0x16e>
 1082750:	0344c783          	lbu	a5,52(s1)
 1082754:	8b91                	andi	a5,a5,4
 1082756:	10078863          	beqz	a5,1082866 <_thread_update_priority+0x16e>
 108275a:	0444a903          	lw	s2,68(s1)
 108275e:	10090463          	beqz	s2,1082866 <_thread_update_priority+0x16e>
 1082762:	854a                	mv	a0,s2
 1082764:	280050ef          	jal	ra,10879e4 <rt_object_get_type>
 1082768:	478d                	li	a5,3
 108276a:	0ef51e63          	bne	a0,a5,1082866 <_thread_update_priority+0x16e>
 108276e:	57fd                	li	a5,-1
 1082770:	fcf40fa3          	sb	a5,-33(s0)
 1082774:	01448793          	addi	a5,s1,20
 1082778:	48d4                	lw	a3,20(s1)
 108277a:	4c98                	lw	a4,24(s1)
 108277c:	c2d8                	sw	a4,4(a3)
 108277e:	48d4                	lw	a3,20(s1)
 1082780:	c314                	sw	a3,0(a4)
 1082782:	cc9c                	sw	a5,24(s1)
 1082784:	c8dc                	sw	a5,20(s1)
 1082786:	01490993          	addi	s3,s2,20
 108278a:	00994b03          	lbu	s6,9(s2)
 108278e:	0344c783          	lbu	a5,52(s1)
 1082792:	8b91                	andi	a5,a5,4
 1082794:	d7d9                	beqz	a5,1082722 <_thread_update_priority+0x2a>
 1082796:	f80b0de3          	beqz	s6,1082730 <_thread_update_priority+0x38>
 108279a:	4785                	li	a5,1
 108279c:	00fb0f63          	beq	s6,a5,10827ba <_thread_update_priority+0xc2>
 10827a0:	0b600613          	li	a2,182
 10827a4:	010865b7          	lui	a1,0x1086
 10827a8:	60058593          	addi	a1,a1,1536 # 1086600 <__FUNCTION__.32>
 10827ac:	01083537          	lui	a0,0x1083
 10827b0:	52850513          	addi	a0,a0,1320 # 1083528 <_rt_mb_recv+0x3f2>
 10827b4:	d7cff0ef          	jal	ra,1081d30 <rt_assert_handler>
 10827b8:	bf41                	j	1082748 <_thread_update_priority+0x50>
 10827ba:	01492783          	lw	a5,20(s2)
 10827be:	02f98263          	beq	s3,a5,10827e2 <_thread_update_priority+0xea>
 10827c2:	0354c683          	lbu	a3,53(s1)
 10827c6:	0217c703          	lbu	a4,33(a5)
 10827ca:	00e6e463          	bltu	a3,a4,10827d2 <_thread_update_priority+0xda>
 10827ce:	439c                	lw	a5,0(a5)
 10827d0:	b7fd                	j	10827be <_thread_update_priority+0xc6>
 10827d2:	01448713          	addi	a4,s1,20
 10827d6:	43d4                	lw	a3,4(a5)
 10827d8:	c298                	sw	a4,0(a3)
 10827da:	43d4                	lw	a3,4(a5)
 10827dc:	cc94                	sw	a3,24(s1)
 10827de:	c3d8                	sw	a4,4(a5)
 10827e0:	c8dc                	sw	a5,20(s1)
 10827e2:	f6f993e3          	bne	s3,a5,1082748 <_thread_update_priority+0x50>
 10827e6:	01448793          	addi	a5,s1,20
 10827ea:	0049a703          	lw	a4,4(s3)
 10827ee:	c31c                	sw	a5,0(a4)
 10827f0:	0049a703          	lw	a4,4(s3)
 10827f4:	cc98                	sw	a4,24(s1)
 10827f6:	00f9a223          	sw	a5,4(s3)
 10827fa:	0134aa23          	sw	s3,20(s1)
 10827fe:	b7a9                	j	1082748 <_thread_update_priority+0x50>
 1082800:	01492783          	lw	a5,20(s2)
 1082804:	00f98c63          	beq	s3,a5,108281c <_thread_update_priority+0x124>
 1082808:	0217c783          	lbu	a5,33(a5)
 108280c:	00f90ea3          	sb	a5,29(s2)
 1082810:	02092483          	lw	s1,32(s2)
 1082814:	0364c603          	lbu	a2,54(s1)
 1082818:	5cdc                	lw	a5,60(s1)
 108281a:	a031                	j	1082826 <_thread_update_priority+0x12e>
 108281c:	57fd                	li	a5,-1
 108281e:	00f90ea3          	sb	a5,29(s2)
 1082822:	b7fd                	j	1082810 <_thread_update_priority+0x118>
 1082824:	439c                	lw	a5,0(a5)
 1082826:	03c48713          	addi	a4,s1,60
 108282a:	02e78063          	beq	a5,a4,108284a <_thread_update_priority+0x152>
 108282e:	ff97c683          	lbu	a3,-7(a5)
 1082832:	ff87c503          	lbu	a0,-8(a5)
 1082836:	8736                	mv	a4,a3
 1082838:	00d57363          	bgeu	a0,a3,108283e <_thread_update_priority+0x146>
 108283c:	872a                	mv	a4,a0
 108283e:	0ff77713          	zext.b	a4,a4
 1082842:	fec771e3          	bgeu	a4,a2,1082824 <_thread_update_priority+0x12c>
 1082846:	863a                	mv	a2,a4
 1082848:	bff1                	j	1082824 <_thread_update_priority+0x12c>
 108284a:	fcc40fa3          	sb	a2,-33(s0)
 108284e:	0354c783          	lbu	a5,53(s1)
 1082852:	00c78a63          	beq	a5,a2,1082866 <_thread_update_priority+0x16e>
 1082856:	fdf40613          	addi	a2,s0,-33
 108285a:	4589                	li	a1,2
 108285c:	8526                	mv	a0,s1
 108285e:	2eb040ef          	jal	ra,1087348 <rt_thread_control>
 1082862:	8aaa                	mv	s5,a0
 1082864:	b5e5                	j	108274c <_thread_update_priority+0x54>
 1082866:	50f2                	lw	ra,60(sp)
 1082868:	5462                	lw	s0,56(sp)
 108286a:	54d2                	lw	s1,52(sp)
 108286c:	5942                	lw	s2,48(sp)
 108286e:	59b2                	lw	s3,44(sp)
 1082870:	5a22                	lw	s4,40(sp)
 1082872:	5a92                	lw	s5,36(sp)
 1082874:	5b02                	lw	s6,32(sp)
 1082876:	6121                	addi	sp,sp,64
 1082878:	8082                	ret
 108287a:	0000                	unimp
 108287c:	7546                	.2byte	0x7546
 108287e:	636e                	.2byte	0x636e
 1082880:	6974                	.2byte	0x6974
 1082882:	255b6e6f          	jal	t3,11392d6 <__rt_rvstack+0x6730e>
 1082886:	203a5d73          	csrrwi	s10,0x203,20
 108288a:	65686373          	csrrsi	t1,0x656,16
 108288e:	7564                	.2byte	0x7564
 1082890:	656c                	.2byte	0x656c
 1082892:	2072                	.2byte	0x2072
 1082894:	7369                	lui	t1,0xffffa
 1082896:	6e20                	.2byte	0x6e20
 1082898:	6120746f          	jal	s0,1089eaa <hpm_pin_irq_enable+0x84>
 108289c:	6176                	.2byte	0x6176
 108289e:	6c69                	lui	s8,0x1a
 10828a0:	6261                	lui	tp,0x18
 10828a2:	656c                	.2byte	0x656c
 10828a4:	000a                	c.slli	zero,0x2
 10828a6:	0000                	unimp
 10828a8:	7546                	.2byte	0x7546
 10828aa:	636e                	.2byte	0x636e
 10828ac:	6974                	.2byte	0x6974
 10828ae:	255b6e6f          	jal	t3,1139302 <__rt_rvstack+0x6733a>
 10828b2:	203a5d73          	csrrwi	s10,0x203,20
 10828b6:	6e69                	lui	t3,0x1a
 10828b8:	6574                	.2byte	0x6574
 10828ba:	7272                	.2byte	0x7272
 10828bc:	7075                	c.lui	zero,0xffffd
 10828be:	2074                	.2byte	0x2074
 10828c0:	7369                	lui	t1,0xffffa
 10828c2:	6420                	.2byte	0x6420
 10828c4:	7369                	lui	t1,0xffffa
 10828c6:	6261                	lui	tp,0x18
 10828c8:	656c                	.2byte	0x656c
 10828ca:	0a64                	addi	s1,sp,284
 10828cc:	0000                	unimp
 10828ce:	0000                	unimp
 10828d0:	7546                	.2byte	0x7546
 10828d2:	636e                	.2byte	0x636e
 10828d4:	6974                	.2byte	0x6974
 10828d6:	255b6e6f          	jal	t3,113932a <__rt_rvstack+0x67362>
 10828da:	73205d73          	csrrwi	s10,0x732,0
 10828de:	6168                	.2byte	0x6168
 10828e0:	6c6c                	.2byte	0x6c6c
 10828e2:	6e20                	.2byte	0x6e20
 10828e4:	6220746f          	jal	s0,1089f06 <hpm_pin_detach_irq+0xa>
 10828e8:	2065                	jal	1082990 <_rt_mutex_take+0x8>
 10828ea:	7375                	lui	t1,0xffffd
 10828ec:	6465                	lui	s0,0x19
 10828ee:	6220                	.2byte	0x6220
 10828f0:	6665                	lui	a2,0x19
 10828f2:	2065726f          	jal	tp,10d9af8 <__rt_rvstack+0x7b30>
 10828f6:	65686373          	csrrsi	t1,0x656,16
 10828fa:	7564                	.2byte	0x7564
 10828fc:	656c                	.2byte	0x656c
 10828fe:	2072                	.2byte	0x2072
 1082900:	72617473          	csrrci	s0,0x726,2
 1082904:	0a74                	addi	a3,sp,284
 1082906:	0000                	unimp
 1082908:	7546                	.2byte	0x7546
 108290a:	636e                	.2byte	0x636e
 108290c:	6974                	.2byte	0x6974
 108290e:	255b6e6f          	jal	t3,1139362 <__rt_rvstack+0x6739a>
 1082912:	73205d73          	csrrwi	s10,0x732,0
 1082916:	6168                	.2byte	0x6168
 1082918:	6c6c                	.2byte	0x6c6c
 108291a:	6e20                	.2byte	0x6e20
 108291c:	6220746f          	jal	s0,1089f3e <hpm_pin_detach_irq+0x42>
 1082920:	2065                	jal	10829c8 <_rt_mutex_take+0x40>
 1082922:	7375                	lui	t1,0xffffd
 1082924:	6465                	lui	s0,0x19
 1082926:	6920                	.2byte	0x6920
 1082928:	206e                	.2byte	0x206e
 108292a:	5349                	li	t1,-14
 108292c:	0a52                	slli	s4,s4,0x14
 108292e:	0000                	unimp
 1082930:	756d                	lui	a0,0xffffb
 1082932:	6574                	.2byte	0x6574
 1082934:	2078                	.2byte	0x2078
 1082936:	3d21                	jal	108274e <_thread_update_priority+0x56>
 1082938:	5220                	lw	s0,96(a2)
 108293a:	5f54                	lw	a3,60(a4)
 108293c:	554e                	lw	a0,240(sp)
 108293e:	4c4c                	lw	a1,28(s0)
 1082940:	0000                	unimp
 1082942:	0000                	unimp
 1082944:	7472                	.2byte	0x7472
 1082946:	6f5f 6a62 6365      	.byte	0x5f, 0x6f, 0x62, 0x6a, 0x65, 0x63
 108294c:	5f74                	lw	a3,124(a4)
 108294e:	5f746567          	.4byte	0x5f746567
 1082952:	7974                	.2byte	0x7974
 1082954:	6570                	.2byte	0x6570
 1082956:	2628                	.2byte	0x2628
 1082958:	756d                	lui	a0,0xffffb
 108295a:	6574                	.2byte	0x6574
 108295c:	2d78                	.2byte	0x2d78
 108295e:	703e                	.2byte	0x703e
 1082960:	7261                	lui	tp,0xffff8
 1082962:	6e65                	lui	t3,0x19
 1082964:	2e74                	.2byte	0x2e74
 1082966:	6170                	.2byte	0x6170
 1082968:	6572                	.2byte	0x6572
 108296a:	746e                	.2byte	0x746e
 108296c:	2029                	jal	1082976 <_thread_update_priority+0x27e>
 108296e:	3d3d                	jal	10827ac <_thread_update_priority+0xb4>
 1082970:	5220                	lw	s0,96(a2)
 1082972:	5f54                	lw	a3,60(a4)
 1082974:	656a624f          	.4byte	0x656a624f
 1082978:	435f7463          	bgeu	t5,s5,1082da0 <_rt_mutex_take+0x418>
 108297c:	616c                	.2byte	0x616c
 108297e:	4d5f7373          	csrrci	t1,0x4d5,30
 1082982:	7475                	lui	s0,0xffffd
 1082984:	7865                	lui	a6,0xffff9
	...

01082988 <_rt_mutex_take>:
 1082988:	7139                	addi	sp,sp,-64
 108298a:	de06                	sw	ra,60(sp)
 108298c:	dc22                	sw	s0,56(sp)
 108298e:	da26                	sw	s1,52(sp)
 1082990:	d84a                	sw	s2,48(sp)
 1082992:	d64e                	sw	s3,44(sp)
 1082994:	d452                	sw	s4,40(sp)
 1082996:	d256                	sw	s5,36(sp)
 1082998:	d05a                	sw	s6,32(sp)
 108299a:	ce5e                	sw	s7,28(sp)
 108299c:	cc62                	sw	s8,24(sp)
 108299e:	0080                	addi	s0,sp,64
 10829a0:	84aa                	mv	s1,a0
 10829a2:	fcb42623          	sw	a1,-52(s0) # ffffcfcc <__etext+0x7ffe551c>
 10829a6:	8ab2                	mv	s5,a2
 10829a8:	a66fe0ef          	jal	ra,1080c0e <rt_hw_interrupt_is_disabled>
 10829ac:	89aa                	mv	s3,a0
 10829ae:	b73fd0ef          	jal	ra,1080520 <__ramfunc_start__>
 10829b2:	892a                	mv	s2,a0
 10829b4:	7ef84097          	auipc	ra,0x7ef84
 10829b8:	402080e7          	jalr	1026(ra) # 80006db6 <rt_critical_level>
 10829bc:	e94d                	bnez	a0,1082a6e <_rt_mutex_take+0xe6>
 10829be:	4785                	li	a5,1
 10829c0:	0cf98c63          	beq	s3,a5,1082a98 <_rt_mutex_take+0x110>
 10829c4:	b5dfd0ef          	jal	ra,1080520 <__ramfunc_start__>
 10829c8:	89aa                	mv	s3,a0
 10829ca:	09e040ef          	jal	ra,1086a68 <rt_thread_self>
 10829ce:	0e050a63          	beqz	a0,1082ac2 <_rt_mutex_take+0x13a>
 10829d2:	b4ffd0ef          	jal	ra,1080520 <__ramfunc_start__>
 10829d6:	8a2a                	mv	s4,a0
 10829d8:	a10fe0ef          	jal	ra,1080be8 <rt_interrupt_get_nest>
 10829dc:	10051863          	bnez	a0,1082aec <_rt_mutex_take+0x164>
 10829e0:	8552                	mv	a0,s4
 10829e2:	b45fd0ef          	jal	ra,1080526 <rt_hw_interrupt_enable>
 10829e6:	854e                	mv	a0,s3
 10829e8:	b3ffd0ef          	jal	ra,1080526 <rt_hw_interrupt_enable>
 10829ec:	854a                	mv	a0,s2
 10829ee:	b39fd0ef          	jal	ra,1080526 <rt_hw_interrupt_enable>
 10829f2:	12048263          	beqz	s1,1082b16 <_rt_mutex_take+0x18e>
 10829f6:	8526                	mv	a0,s1
 10829f8:	7ed040ef          	jal	ra,10879e4 <rt_object_get_type>
 10829fc:	478d                	li	a5,3
 10829fe:	12f51963          	bne	a0,a5,1082b30 <_rt_mutex_take+0x1a8>
 1082a02:	066040ef          	jal	ra,1086a68 <rt_thread_self>
 1082a06:	892a                	mv	s2,a0
 1082a08:	b19fd0ef          	jal	ra,1080520 <__ramfunc_start__>
 1082a0c:	89aa                	mv	s3,a0
 1082a0e:	0108e7b7          	lui	a5,0x108e
 1082a12:	aac7a783          	lw	a5,-1364(a5) # 108daac <rt_object_trytake_hook>
 1082a16:	c399                	beqz	a5,1082a1c <_rt_mutex_take+0x94>
 1082a18:	8526                	mv	a0,s1
 1082a1a:	9782                	jalr	a5
 1082a1c:	02092823          	sw	zero,48(s2)
 1082a20:	509c                	lw	a5,32(s1)
 1082a22:	13278463          	beq	a5,s2,1082b4a <_rt_mutex_take+0x1c2>
 1082a26:	16078963          	beqz	a5,1082b98 <_rt_mutex_take+0x210>
 1082a2a:	fcc42783          	lw	a5,-52(s0)
 1082a2e:	1a078963          	beqz	a5,1082be0 <_rt_mutex_take+0x258>
 1082a32:	03594b83          	lbu	s7,53(s2)
 1082a36:	01448b13          	addi	s6,s1,20
 1082a3a:	0094cc03          	lbu	s8,9(s1)
 1082a3e:	03494783          	lbu	a5,52(s2)
 1082a42:	8b91                	andi	a5,a5,4
 1082a44:	1a078863          	beqz	a5,1082bf4 <_rt_mutex_take+0x26c>
 1082a48:	1a0c0e63          	beqz	s8,1082c04 <_rt_mutex_take+0x27c>
 1082a4c:	4785                	li	a5,1
 1082a4e:	22fc0f63          	beq	s8,a5,1082c8c <_rt_mutex_take+0x304>
 1082a52:	0b600613          	li	a2,182
 1082a56:	010865b7          	lui	a1,0x1086
 1082a5a:	60058593          	addi	a1,a1,1536 # 1086600 <__FUNCTION__.32>
 1082a5e:	01083537          	lui	a0,0x1083
 1082a62:	52850513          	addi	a0,a0,1320 # 1083528 <_rt_mb_recv+0x3f2>
 1082a66:	acaff0ef          	jal	ra,1081d30 <rt_assert_handler>
 1082a6a:	4a01                	li	s4,0
 1082a6c:	aa55                	j	1082c20 <_rt_mutex_take+0x298>
 1082a6e:	01086a37          	lui	s4,0x1086
 1082a72:	57ca0593          	addi	a1,s4,1404 # 108657c <__FUNCTION__.25>
 1082a76:	01083537          	lui	a0,0x1083
 1082a7a:	87c50513          	addi	a0,a0,-1924 # 108287c <_thread_update_priority+0x184>
 1082a7e:	f05fe0ef          	jal	ra,1081982 <rt_kprintf>
 1082a82:	49f00613          	li	a2,1183
 1082a86:	57ca0593          	addi	a1,s4,1404
 1082a8a:	01083537          	lui	a0,0x1083
 1082a8e:	52850513          	addi	a0,a0,1320 # 1083528 <_rt_mb_recv+0x3f2>
 1082a92:	a9eff0ef          	jal	ra,1081d30 <rt_assert_handler>
 1082a96:	b725                	j	10829be <_rt_mutex_take+0x36>
 1082a98:	010869b7          	lui	s3,0x1086
 1082a9c:	57c98593          	addi	a1,s3,1404 # 108657c <__FUNCTION__.25>
 1082aa0:	01083537          	lui	a0,0x1083
 1082aa4:	8a850513          	addi	a0,a0,-1880 # 10828a8 <_thread_update_priority+0x1b0>
 1082aa8:	edbfe0ef          	jal	ra,1081982 <rt_kprintf>
 1082aac:	49f00613          	li	a2,1183
 1082ab0:	57c98593          	addi	a1,s3,1404
 1082ab4:	01083537          	lui	a0,0x1083
 1082ab8:	52850513          	addi	a0,a0,1320 # 1083528 <_rt_mb_recv+0x3f2>
 1082abc:	a74ff0ef          	jal	ra,1081d30 <rt_assert_handler>
 1082ac0:	b711                	j	10829c4 <_rt_mutex_take+0x3c>
 1082ac2:	01086a37          	lui	s4,0x1086
 1082ac6:	57ca0593          	addi	a1,s4,1404 # 108657c <__FUNCTION__.25>
 1082aca:	01083537          	lui	a0,0x1083
 1082ace:	8d050513          	addi	a0,a0,-1840 # 10828d0 <_thread_update_priority+0x1d8>
 1082ad2:	eb1fe0ef          	jal	ra,1081982 <rt_kprintf>
 1082ad6:	49f00613          	li	a2,1183
 1082ada:	57ca0593          	addi	a1,s4,1404
 1082ade:	01083537          	lui	a0,0x1083
 1082ae2:	52850513          	addi	a0,a0,1320 # 1083528 <_rt_mb_recv+0x3f2>
 1082ae6:	a4aff0ef          	jal	ra,1081d30 <rt_assert_handler>
 1082aea:	b5e5                	j	10829d2 <_rt_mutex_take+0x4a>
 1082aec:	01086b37          	lui	s6,0x1086
 1082af0:	57cb0593          	addi	a1,s6,1404 # 108657c <__FUNCTION__.25>
 1082af4:	01083537          	lui	a0,0x1083
 1082af8:	90850513          	addi	a0,a0,-1784 # 1082908 <_thread_update_priority+0x210>
 1082afc:	e87fe0ef          	jal	ra,1081982 <rt_kprintf>
 1082b00:	49f00613          	li	a2,1183
 1082b04:	57cb0593          	addi	a1,s6,1404
 1082b08:	01083537          	lui	a0,0x1083
 1082b0c:	52850513          	addi	a0,a0,1320 # 1083528 <_rt_mb_recv+0x3f2>
 1082b10:	a20ff0ef          	jal	ra,1081d30 <rt_assert_handler>
 1082b14:	b5f1                	j	10829e0 <_rt_mutex_take+0x58>
 1082b16:	4a200613          	li	a2,1186
 1082b1a:	010865b7          	lui	a1,0x1086
 1082b1e:	57c58593          	addi	a1,a1,1404 # 108657c <__FUNCTION__.25>
 1082b22:	01083537          	lui	a0,0x1083
 1082b26:	93050513          	addi	a0,a0,-1744 # 1082930 <_thread_update_priority+0x238>
 1082b2a:	a06ff0ef          	jal	ra,1081d30 <rt_assert_handler>
 1082b2e:	b5e1                	j	10829f6 <_rt_mutex_take+0x6e>
 1082b30:	4a300613          	li	a2,1187
 1082b34:	010865b7          	lui	a1,0x1086
 1082b38:	57c58593          	addi	a1,a1,1404 # 108657c <__FUNCTION__.25>
 1082b3c:	01083537          	lui	a0,0x1083
 1082b40:	94450513          	addi	a0,a0,-1724 # 1082944 <_thread_update_priority+0x24c>
 1082b44:	9ecff0ef          	jal	ra,1081d30 <rt_assert_handler>
 1082b48:	bd6d                	j	1082a02 <_rt_mutex_take+0x7a>
 1082b4a:	01e4c783          	lbu	a5,30(s1)
 1082b4e:	0ff00713          	li	a4,255
 1082b52:	02e78e63          	beq	a5,a4,1082b8e <_rt_mutex_take+0x206>
 1082b56:	0785                	addi	a5,a5,1
 1082b58:	00f48f23          	sb	a5,30(s1)
 1082b5c:	854e                	mv	a0,s3
 1082b5e:	9c9fd0ef          	jal	ra,1080526 <rt_hw_interrupt_enable>
 1082b62:	0108e7b7          	lui	a5,0x108e
 1082b66:	aa87a783          	lw	a5,-1368(a5) # 108daa8 <rt_object_take_hook>
 1082b6a:	1e078d63          	beqz	a5,1082d64 <_rt_mutex_take+0x3dc>
 1082b6e:	8526                	mv	a0,s1
 1082b70:	9782                	jalr	a5
 1082b72:	4a01                	li	s4,0
 1082b74:	8552                	mv	a0,s4
 1082b76:	50f2                	lw	ra,60(sp)
 1082b78:	5462                	lw	s0,56(sp)
 1082b7a:	54d2                	lw	s1,52(sp)
 1082b7c:	5942                	lw	s2,48(sp)
 1082b7e:	59b2                	lw	s3,44(sp)
 1082b80:	5a22                	lw	s4,40(sp)
 1082b82:	5a92                	lw	s5,36(sp)
 1082b84:	5b02                	lw	s6,32(sp)
 1082b86:	4bf2                	lw	s7,28(sp)
 1082b88:	4c62                	lw	s8,24(sp)
 1082b8a:	6121                	addi	sp,sp,64
 1082b8c:	8082                	ret
 1082b8e:	854e                	mv	a0,s3
 1082b90:	997fd0ef          	jal	ra,1080526 <rt_hw_interrupt_enable>
 1082b94:	5a11                	li	s4,-28
 1082b96:	bff9                	j	1082b74 <_rt_mutex_take+0x1ec>
 1082b98:	0324a023          	sw	s2,32(s1)
 1082b9c:	57fd                	li	a5,-1
 1082b9e:	00f48ea3          	sb	a5,29(s1)
 1082ba2:	4785                	li	a5,1
 1082ba4:	00f48f23          	sb	a5,30(s1)
 1082ba8:	01c4c583          	lbu	a1,28(s1)
 1082bac:	0ff00793          	li	a5,255
 1082bb0:	00f58663          	beq	a1,a5,1082bbc <_rt_mutex_take+0x234>
 1082bb4:	03594783          	lbu	a5,53(s2)
 1082bb8:	02f5e063          	bltu	a1,a5,1082bd8 <_rt_mutex_take+0x250>
 1082bbc:	03c90713          	addi	a4,s2,60
 1082bc0:	02448793          	addi	a5,s1,36
 1082bc4:	03c92683          	lw	a3,60(s2)
 1082bc8:	c2dc                	sw	a5,4(a3)
 1082bca:	03c92683          	lw	a3,60(s2)
 1082bce:	d0d4                	sw	a3,36(s1)
 1082bd0:	02f92e23          	sw	a5,60(s2)
 1082bd4:	d498                	sw	a4,40(s1)
 1082bd6:	b759                	j	1082b5c <_rt_mutex_take+0x1d4>
 1082bd8:	8656                	mv	a2,s5
 1082bda:	854a                	mv	a0,s2
 1082bdc:	3e31                	jal	10826f8 <_thread_update_priority>
 1082bde:	bff9                	j	1082bbc <_rt_mutex_take+0x234>
 1082be0:	f8c00793          	li	a5,-116
 1082be4:	02f92823          	sw	a5,48(s2)
 1082be8:	854e                	mv	a0,s3
 1082bea:	93dfd0ef          	jal	ra,1080526 <rt_hw_interrupt_enable>
 1082bee:	f8c00a13          	li	s4,-116
 1082bf2:	b749                	j	1082b74 <_rt_mutex_take+0x1ec>
 1082bf4:	85d6                	mv	a1,s5
 1082bf6:	854a                	mv	a0,s2
 1082bf8:	1b8040ef          	jal	ra,1086db0 <rt_thread_suspend_with_flag>
 1082bfc:	8a2a                	mv	s4,a0
 1082bfe:	e40505e3          	beqz	a0,1082a48 <_rt_mutex_take+0xc0>
 1082c02:	a839                	j	1082c20 <_rt_mutex_take+0x298>
 1082c04:	01490793          	addi	a5,s2,20
 1082c08:	004b2703          	lw	a4,4(s6)
 1082c0c:	c31c                	sw	a5,0(a4)
 1082c0e:	004b2703          	lw	a4,4(s6)
 1082c12:	00e92c23          	sw	a4,24(s2)
 1082c16:	00fb2223          	sw	a5,4(s6)
 1082c1a:	01692a23          	sw	s6,20(s2)
 1082c1e:	4a01                	li	s4,0
 1082c20:	0a0a1e63          	bnez	s4,1082cdc <_rt_mutex_take+0x354>
 1082c24:	04992223          	sw	s1,68(s2)
 1082c28:	01d4c783          	lbu	a5,29(s1)
 1082c2c:	00fbf963          	bgeu	s7,a5,1082c3e <_rt_mutex_take+0x2b6>
 1082c30:	01748ea3          	sb	s7,29(s1)
 1082c34:	5088                	lw	a0,32(s1)
 1082c36:	03554783          	lbu	a5,53(a0)
 1082c3a:	0afbe563          	bltu	s7,a5,1082ce4 <_rt_mutex_take+0x35c>
 1082c3e:	fcc42783          	lw	a5,-52(s0)
 1082c42:	0af04663          	bgtz	a5,1082cee <_rt_mutex_take+0x366>
 1082c46:	854e                	mv	a0,s3
 1082c48:	8dffd0ef          	jal	ra,1080526 <rt_hw_interrupt_enable>
 1082c4c:	7ef84097          	auipc	ra,0x7ef84
 1082c50:	f8e080e7          	jalr	-114(ra) # 80006bda <rt_schedule>
 1082c54:	8cdfd0ef          	jal	ra,1080520 <__ramfunc_start__>
 1082c58:	89aa                	mv	s3,a0
 1082c5a:	03092783          	lw	a5,48(s2)
 1082c5e:	ee078fe3          	beqz	a5,1082b5c <_rt_mutex_take+0x1d4>
 1082c62:	5088                	lw	a0,32(s1)
 1082c64:	c519                	beqz	a0,1082c72 <_rt_mutex_take+0x2ea>
 1082c66:	03554703          	lbu	a4,53(a0)
 1082c6a:	03594783          	lbu	a5,53(s2)
 1082c6e:	08f70c63          	beq	a4,a5,1082d06 <_rt_mutex_take+0x37e>
 1082c72:	48dc                	lw	a5,20(s1)
 1082c74:	08fb0b63          	beq	s6,a5,1082d0a <_rt_mutex_take+0x382>
 1082c78:	0217c783          	lbu	a5,33(a5)
 1082c7c:	00f48ea3          	sb	a5,29(s1)
 1082c80:	0c0a0063          	beqz	s4,1082d40 <_rt_mutex_take+0x3b8>
 1082c84:	03654583          	lbu	a1,54(a0)
 1082c88:	5d5c                	lw	a5,60(a0)
 1082c8a:	a069                	j	1082d14 <_rt_mutex_take+0x38c>
 1082c8c:	48dc                	lw	a5,20(s1)
 1082c8e:	a011                	j	1082c92 <_rt_mutex_take+0x30a>
 1082c90:	439c                	lw	a5,0(a5)
 1082c92:	02fb0263          	beq	s6,a5,1082cb6 <_rt_mutex_take+0x32e>
 1082c96:	03594683          	lbu	a3,53(s2)
 1082c9a:	0217c703          	lbu	a4,33(a5)
 1082c9e:	fee6f9e3          	bgeu	a3,a4,1082c90 <_rt_mutex_take+0x308>
 1082ca2:	01490713          	addi	a4,s2,20
 1082ca6:	43d4                	lw	a3,4(a5)
 1082ca8:	c298                	sw	a4,0(a3)
 1082caa:	43d4                	lw	a3,4(a5)
 1082cac:	00d92c23          	sw	a3,24(s2)
 1082cb0:	c3d8                	sw	a4,4(a5)
 1082cb2:	00f92a23          	sw	a5,20(s2)
 1082cb6:	00fb0463          	beq	s6,a5,1082cbe <_rt_mutex_take+0x336>
 1082cba:	4a01                	li	s4,0
 1082cbc:	b795                	j	1082c20 <_rt_mutex_take+0x298>
 1082cbe:	01490793          	addi	a5,s2,20
 1082cc2:	004b2703          	lw	a4,4(s6)
 1082cc6:	c31c                	sw	a5,0(a4)
 1082cc8:	004b2703          	lw	a4,4(s6)
 1082ccc:	00e92c23          	sw	a4,24(s2)
 1082cd0:	00fb2223          	sw	a5,4(s6)
 1082cd4:	01692a23          	sw	s6,20(s2)
 1082cd8:	4a01                	li	s4,0
 1082cda:	b799                	j	1082c20 <_rt_mutex_take+0x298>
 1082cdc:	854e                	mv	a0,s3
 1082cde:	849fd0ef          	jal	ra,1080526 <rt_hw_interrupt_enable>
 1082ce2:	bd49                	j	1082b74 <_rt_mutex_take+0x1ec>
 1082ce4:	4609                	li	a2,2
 1082ce6:	85de                	mv	a1,s7
 1082ce8:	a11ff0ef          	jal	ra,10826f8 <_thread_update_priority>
 1082cec:	bf89                	j	1082c3e <_rt_mutex_take+0x2b6>
 1082cee:	05890a93          	addi	s5,s2,88
 1082cf2:	fcc40613          	addi	a2,s0,-52
 1082cf6:	4581                	li	a1,0
 1082cf8:	8556                	mv	a0,s5
 1082cfa:	590050ef          	jal	ra,108828a <rt_timer_control>
 1082cfe:	8556                	mv	a0,s5
 1082d00:	31e050ef          	jal	ra,108801e <rt_timer_start>
 1082d04:	b789                	j	1082c46 <_rt_mutex_take+0x2be>
 1082d06:	4a05                	li	s4,1
 1082d08:	b7ad                	j	1082c72 <_rt_mutex_take+0x2ea>
 1082d0a:	57fd                	li	a5,-1
 1082d0c:	00f48ea3          	sb	a5,29(s1)
 1082d10:	bf85                	j	1082c80 <_rt_mutex_take+0x2f8>
 1082d12:	439c                	lw	a5,0(a5)
 1082d14:	03c50713          	addi	a4,a0,60
 1082d18:	02e78063          	beq	a5,a4,1082d38 <_rt_mutex_take+0x3b0>
 1082d1c:	ff97c683          	lbu	a3,-7(a5)
 1082d20:	ff87c603          	lbu	a2,-8(a5)
 1082d24:	8736                	mv	a4,a3
 1082d26:	00d67363          	bgeu	a2,a3,1082d2c <_rt_mutex_take+0x3a4>
 1082d2a:	8732                	mv	a4,a2
 1082d2c:	0ff77713          	zext.b	a4,a4
 1082d30:	feb771e3          	bgeu	a4,a1,1082d12 <_rt_mutex_take+0x38a>
 1082d34:	85ba                	mv	a1,a4
 1082d36:	bff1                	j	1082d12 <_rt_mutex_take+0x38a>
 1082d38:	03554783          	lbu	a5,53(a0)
 1082d3c:	02b79063          	bne	a5,a1,1082d5c <_rt_mutex_take+0x3d4>
 1082d40:	854e                	mv	a0,s3
 1082d42:	fe4fd0ef          	jal	ra,1080526 <rt_hw_interrupt_enable>
 1082d46:	04092223          	sw	zero,68(s2)
 1082d4a:	03092783          	lw	a5,48(s2)
 1082d4e:	41f7da13          	srai	s4,a5,0x1f
 1082d52:	00fa47b3          	xor	a5,s4,a5
 1082d56:	40fa0a33          	sub	s4,s4,a5
 1082d5a:	bd29                	j	1082b74 <_rt_mutex_take+0x1ec>
 1082d5c:	4609                	li	a2,2
 1082d5e:	99bff0ef          	jal	ra,10826f8 <_thread_update_priority>
 1082d62:	bff9                	j	1082d40 <_rt_mutex_take+0x3b8>
 1082d64:	4a01                	li	s4,0
 1082d66:	b539                	j	1082b74 <_rt_mutex_take+0x1ec>
 1082d68:	626d                	lui	tp,0x1b
 1082d6a:	2120                	.2byte	0x2120
 1082d6c:	203d                	jal	1082d9a <_rt_mutex_take+0x412>
 1082d6e:	5452                	lw	s0,52(sp)
 1082d70:	4e5f 4c55 004c      	.byte	0x5f, 0x4e, 0x55, 0x4c, 0x4c, 0x00
 1082d76:	0000                	unimp
 1082d78:	7472                	.2byte	0x7472
 1082d7a:	6f5f 6a62 6365      	.byte	0x5f, 0x6f, 0x62, 0x6a, 0x65, 0x63
 1082d80:	5f74                	lw	a3,124(a4)
 1082d82:	5f746567          	.4byte	0x5f746567
 1082d86:	7974                	.2byte	0x7974
 1082d88:	6570                	.2byte	0x6570
 1082d8a:	2628                	.2byte	0x2628
 1082d8c:	626d                	lui	tp,0x1b
 1082d8e:	3e2d                	jal	10828c8 <_thread_update_priority+0x1d0>
 1082d90:	6170                	.2byte	0x6170
 1082d92:	6572                	.2byte	0x6572
 1082d94:	746e                	.2byte	0x746e
 1082d96:	702e                	.2byte	0x702e
 1082d98:	7261                	lui	tp,0xffff8
 1082d9a:	6e65                	lui	t3,0x19
 1082d9c:	2974                	.2byte	0x2974
 1082d9e:	3d20                	.2byte	0x3d20
 1082da0:	203d                	jal	1082dce <_rt_mb_send_wait+0x14>
 1082da2:	5452                	lw	s0,52(sp)
 1082da4:	4f5f 6a62 6365      	.byte	0x5f, 0x4f, 0x62, 0x6a, 0x65, 0x63
 1082daa:	5f74                	lw	a3,124(a4)
 1082dac:	73616c43          	.4byte	0x73616c43
 1082db0:	614d5f73          	csrrwi	t5,0x614,26
 1082db4:	6c69                	lui	s8,0x1a
 1082db6:	6f42                	.2byte	0x6f42
 1082db8:	0078                	addi	a4,sp,12

01082dba <_rt_mb_send_wait>:
 1082dba:	7139                	addi	sp,sp,-64
 1082dbc:	de06                	sw	ra,60(sp)
 1082dbe:	dc22                	sw	s0,56(sp)
 1082dc0:	da26                	sw	s1,52(sp)
 1082dc2:	d84a                	sw	s2,48(sp)
 1082dc4:	d64e                	sw	s3,44(sp)
 1082dc6:	d452                	sw	s4,40(sp)
 1082dc8:	d256                	sw	s5,36(sp)
 1082dca:	d05a                	sw	s6,32(sp)
 1082dcc:	ce5e                	sw	s7,28(sp)
 1082dce:	cc62                	sw	s8,24(sp)
 1082dd0:	ca66                	sw	s9,20(sp)
 1082dd2:	0080                	addi	s0,sp,64
 1082dd4:	89aa                	mv	s3,a0
 1082dd6:	8c2e                	mv	s8,a1
 1082dd8:	fcc42623          	sw	a2,-52(s0)
 1082ddc:	8bb6                	mv	s7,a3
 1082dde:	cd1d                	beqz	a0,1082e1c <_rt_mb_send_wait+0x62>
 1082de0:	854e                	mv	a0,s3
 1082de2:	403040ef          	jal	ra,10879e4 <rt_object_get_type>
 1082de6:	4795                	li	a5,5
 1082de8:	04f51863          	bne	a0,a5,1082e38 <_rt_mb_send_wait+0x7e>
 1082dec:	fcc42783          	lw	a5,-52(s0)
 1082df0:	e3b5                	bnez	a5,1082e54 <_rt_mb_send_wait+0x9a>
 1082df2:	477030ef          	jal	ra,1086a68 <rt_thread_self>
 1082df6:	84aa                	mv	s1,a0
 1082df8:	0108e7b7          	lui	a5,0x108e
 1082dfc:	aa47a783          	lw	a5,-1372(a5) # 108daa4 <rt_object_put_hook>
 1082e00:	c399                	beqz	a5,1082e06 <_rt_mb_send_wait+0x4c>
 1082e02:	854e                	mv	a0,s3
 1082e04:	9782                	jalr	a5
 1082e06:	f1afd0ef          	jal	ra,1080520 <__ramfunc_start__>
 1082e0a:	8aaa                	mv	s5,a0
 1082e0c:	0229d703          	lhu	a4,34(s3)
 1082e10:	0209d783          	lhu	a5,32(s3)
 1082e14:	12f70c63          	beq	a4,a5,1082f4c <_rt_mb_send_wait+0x192>
 1082e18:	4b01                	li	s6,0
 1082e1a:	a2c1                	j	1082fda <_rt_mb_send_wait+0x220>
 1082e1c:	6605                	lui	a2,0x1
 1082e1e:	95660613          	addi	a2,a2,-1706 # 956 <__boot_header_length__+0x8c6>
 1082e22:	010865b7          	lui	a1,0x1086
 1082e26:	48058593          	addi	a1,a1,1152 # 1086480 <__FUNCTION__.11>
 1082e2a:	01083537          	lui	a0,0x1083
 1082e2e:	d6850513          	addi	a0,a0,-664 # 1082d68 <_rt_mutex_take+0x3e0>
 1082e32:	efffe0ef          	jal	ra,1081d30 <rt_assert_handler>
 1082e36:	b76d                	j	1082de0 <_rt_mb_send_wait+0x26>
 1082e38:	6605                	lui	a2,0x1
 1082e3a:	95760613          	addi	a2,a2,-1705 # 957 <__boot_header_length__+0x8c7>
 1082e3e:	010865b7          	lui	a1,0x1086
 1082e42:	48058593          	addi	a1,a1,1152 # 1086480 <__FUNCTION__.11>
 1082e46:	01083537          	lui	a0,0x1083
 1082e4a:	d7850513          	addi	a0,a0,-648 # 1082d78 <_rt_mutex_take+0x3f0>
 1082e4e:	ee3fe0ef          	jal	ra,1081d30 <rt_assert_handler>
 1082e52:	bf69                	j	1082dec <_rt_mb_send_wait+0x32>
 1082e54:	dbbfd0ef          	jal	ra,1080c0e <rt_hw_interrupt_is_disabled>
 1082e58:	892a                	mv	s2,a0
 1082e5a:	ec6fd0ef          	jal	ra,1080520 <__ramfunc_start__>
 1082e5e:	84aa                	mv	s1,a0
 1082e60:	7ef84097          	auipc	ra,0x7ef84
 1082e64:	f56080e7          	jalr	-170(ra) # 80006db6 <rt_critical_level>
 1082e68:	e915                	bnez	a0,1082e9c <_rt_mb_send_wait+0xe2>
 1082e6a:	4785                	li	a5,1
 1082e6c:	04f90e63          	beq	s2,a5,1082ec8 <_rt_mb_send_wait+0x10e>
 1082e70:	eb0fd0ef          	jal	ra,1080520 <__ramfunc_start__>
 1082e74:	892a                	mv	s2,a0
 1082e76:	3f3030ef          	jal	ra,1086a68 <rt_thread_self>
 1082e7a:	cd2d                	beqz	a0,1082ef4 <_rt_mb_send_wait+0x13a>
 1082e7c:	ea4fd0ef          	jal	ra,1080520 <__ramfunc_start__>
 1082e80:	8a2a                	mv	s4,a0
 1082e82:	d67fd0ef          	jal	ra,1080be8 <rt_interrupt_get_nest>
 1082e86:	ed49                	bnez	a0,1082f20 <_rt_mb_send_wait+0x166>
 1082e88:	8552                	mv	a0,s4
 1082e8a:	e9cfd0ef          	jal	ra,1080526 <rt_hw_interrupt_enable>
 1082e8e:	854a                	mv	a0,s2
 1082e90:	e96fd0ef          	jal	ra,1080526 <rt_hw_interrupt_enable>
 1082e94:	8526                	mv	a0,s1
 1082e96:	e90fd0ef          	jal	ra,1080526 <rt_hw_interrupt_enable>
 1082e9a:	bfa1                	j	1082df2 <_rt_mb_send_wait+0x38>
 1082e9c:	01086a37          	lui	s4,0x1086
 1082ea0:	480a0593          	addi	a1,s4,1152 # 1086480 <__FUNCTION__.11>
 1082ea4:	01083537          	lui	a0,0x1083
 1082ea8:	87c50513          	addi	a0,a0,-1924 # 108287c <_thread_update_priority+0x184>
 1082eac:	ad7fe0ef          	jal	ra,1081982 <rt_kprintf>
 1082eb0:	6605                	lui	a2,0x1
 1082eb2:	95a60613          	addi	a2,a2,-1702 # 95a <__boot_header_length__+0x8ca>
 1082eb6:	480a0593          	addi	a1,s4,1152
 1082eba:	01083537          	lui	a0,0x1083
 1082ebe:	52850513          	addi	a0,a0,1320 # 1083528 <_rt_mb_recv+0x3f2>
 1082ec2:	e6ffe0ef          	jal	ra,1081d30 <rt_assert_handler>
 1082ec6:	b755                	j	1082e6a <_rt_mb_send_wait+0xb0>
 1082ec8:	01086937          	lui	s2,0x1086
 1082ecc:	48090593          	addi	a1,s2,1152 # 1086480 <__FUNCTION__.11>
 1082ed0:	01083537          	lui	a0,0x1083
 1082ed4:	8a850513          	addi	a0,a0,-1880 # 10828a8 <_thread_update_priority+0x1b0>
 1082ed8:	aabfe0ef          	jal	ra,1081982 <rt_kprintf>
 1082edc:	6605                	lui	a2,0x1
 1082ede:	95a60613          	addi	a2,a2,-1702 # 95a <__boot_header_length__+0x8ca>
 1082ee2:	48090593          	addi	a1,s2,1152
 1082ee6:	01083537          	lui	a0,0x1083
 1082eea:	52850513          	addi	a0,a0,1320 # 1083528 <_rt_mb_recv+0x3f2>
 1082eee:	e43fe0ef          	jal	ra,1081d30 <rt_assert_handler>
 1082ef2:	bfbd                	j	1082e70 <_rt_mb_send_wait+0xb6>
 1082ef4:	01086a37          	lui	s4,0x1086
 1082ef8:	480a0593          	addi	a1,s4,1152 # 1086480 <__FUNCTION__.11>
 1082efc:	01083537          	lui	a0,0x1083
 1082f00:	8d050513          	addi	a0,a0,-1840 # 10828d0 <_thread_update_priority+0x1d8>
 1082f04:	a7ffe0ef          	jal	ra,1081982 <rt_kprintf>
 1082f08:	6605                	lui	a2,0x1
 1082f0a:	95a60613          	addi	a2,a2,-1702 # 95a <__boot_header_length__+0x8ca>
 1082f0e:	480a0593          	addi	a1,s4,1152
 1082f12:	01083537          	lui	a0,0x1083
 1082f16:	52850513          	addi	a0,a0,1320 # 1083528 <_rt_mb_recv+0x3f2>
 1082f1a:	e17fe0ef          	jal	ra,1081d30 <rt_assert_handler>
 1082f1e:	bfb9                	j	1082e7c <_rt_mb_send_wait+0xc2>
 1082f20:	01086ab7          	lui	s5,0x1086
 1082f24:	480a8593          	addi	a1,s5,1152 # 1086480 <__FUNCTION__.11>
 1082f28:	01083537          	lui	a0,0x1083
 1082f2c:	90850513          	addi	a0,a0,-1784 # 1082908 <_thread_update_priority+0x210>
 1082f30:	a53fe0ef          	jal	ra,1081982 <rt_kprintf>
 1082f34:	6605                	lui	a2,0x1
 1082f36:	95a60613          	addi	a2,a2,-1702 # 95a <__boot_header_length__+0x8ca>
 1082f3a:	480a8593          	addi	a1,s5,1152
 1082f3e:	01083537          	lui	a0,0x1083
 1082f42:	52850513          	addi	a0,a0,1320 # 1083528 <_rt_mb_recv+0x3f2>
 1082f46:	debfe0ef          	jal	ra,1081d30 <rt_assert_handler>
 1082f4a:	bf3d                	j	1082e88 <_rt_mb_send_wait+0xce>
 1082f4c:	fcc42783          	lw	a5,-52(s0)
 1082f50:	c399                	beqz	a5,1082f56 <_rt_mb_send_wait+0x19c>
 1082f52:	4b01                	li	s6,0
 1082f54:	a059                	j	1082fda <_rt_mb_send_wait+0x220>
 1082f56:	dd0fd0ef          	jal	ra,1080526 <rt_hw_interrupt_enable>
 1082f5a:	5a11                	li	s4,-28
 1082f5c:	a029                	j	1082f66 <_rt_mb_send_wait+0x1ac>
 1082f5e:	8556                	mv	a0,s5
 1082f60:	dc6fd0ef          	jal	ra,1080526 <rt_hw_interrupt_enable>
 1082f64:	5a11                	li	s4,-28
 1082f66:	8552                	mv	a0,s4
 1082f68:	50f2                	lw	ra,60(sp)
 1082f6a:	5462                	lw	s0,56(sp)
 1082f6c:	54d2                	lw	s1,52(sp)
 1082f6e:	5942                	lw	s2,48(sp)
 1082f70:	59b2                	lw	s3,44(sp)
 1082f72:	5a22                	lw	s4,40(sp)
 1082f74:	5a92                	lw	s5,36(sp)
 1082f76:	5b02                	lw	s6,32(sp)
 1082f78:	4bf2                	lw	s7,28(sp)
 1082f7a:	4c62                	lw	s8,24(sp)
 1082f7c:	4cd2                	lw	s9,20(sp)
 1082f7e:	6121                	addi	sp,sp,64
 1082f80:	8082                	ret
 1082f82:	85de                	mv	a1,s7
 1082f84:	8526                	mv	a0,s1
 1082f86:	62b030ef          	jal	ra,1086db0 <rt_thread_suspend_with_flag>
 1082f8a:	8a2a                	mv	s4,a0
 1082f8c:	c935                	beqz	a0,1083000 <_rt_mb_send_wait+0x246>
 1082f8e:	a831                	j	1082faa <_rt_mb_send_wait+0x1f0>
 1082f90:	01448793          	addi	a5,s1,20
 1082f94:	00492703          	lw	a4,4(s2)
 1082f98:	c31c                	sw	a5,0(a4)
 1082f9a:	00492703          	lw	a4,4(s2)
 1082f9e:	cc98                	sw	a4,24(s1)
 1082fa0:	00f92223          	sw	a5,4(s2)
 1082fa4:	0124aa23          	sw	s2,20(s1)
 1082fa8:	4a01                	li	s4,0
 1082faa:	0c0a1463          	bnez	s4,1083072 <_rt_mb_send_wait+0x2b8>
 1082fae:	fcc42783          	lw	a5,-52(s0)
 1082fb2:	0cf04463          	bgtz	a5,108307a <_rt_mb_send_wait+0x2c0>
 1082fb6:	8556                	mv	a0,s5
 1082fb8:	d6efd0ef          	jal	ra,1080526 <rt_hw_interrupt_enable>
 1082fbc:	7ef84097          	auipc	ra,0x7ef84
 1082fc0:	c1e080e7          	jalr	-994(ra) # 80006bda <rt_schedule>
 1082fc4:	0304aa03          	lw	s4,48(s1)
 1082fc8:	f80a1fe3          	bnez	s4,1082f66 <_rt_mb_send_wait+0x1ac>
 1082fcc:	d54fd0ef          	jal	ra,1080520 <__ramfunc_start__>
 1082fd0:	8aaa                	mv	s5,a0
 1082fd2:	fcc42783          	lw	a5,-52(s0)
 1082fd6:	0cf04163          	bgtz	a5,1083098 <_rt_mb_send_wait+0x2de>
 1082fda:	0229d703          	lhu	a4,34(s3)
 1082fde:	0209d783          	lhu	a5,32(s3)
 1082fe2:	0cf71e63          	bne	a4,a5,10830be <_rt_mb_send_wait+0x304>
 1082fe6:	57f1                	li	a5,-4
 1082fe8:	d89c                	sw	a5,48(s1)
 1082fea:	fcc42783          	lw	a5,-52(s0)
 1082fee:	dba5                	beqz	a5,1082f5e <_rt_mb_send_wait+0x1a4>
 1082ff0:	02898913          	addi	s2,s3,40
 1082ff4:	0099cc83          	lbu	s9,9(s3)
 1082ff8:	0344c783          	lbu	a5,52(s1)
 1082ffc:	8b91                	andi	a5,a5,4
 1082ffe:	d3d1                	beqz	a5,1082f82 <_rt_mb_send_wait+0x1c8>
 1083000:	f80c88e3          	beqz	s9,1082f90 <_rt_mb_send_wait+0x1d6>
 1083004:	4785                	li	a5,1
 1083006:	02fc8063          	beq	s9,a5,1083026 <_rt_mb_send_wait+0x26c>
 108300a:	0b600613          	li	a2,182
 108300e:	010865b7          	lui	a1,0x1086
 1083012:	60058593          	addi	a1,a1,1536 # 1086600 <__FUNCTION__.32>
 1083016:	01083537          	lui	a0,0x1083
 108301a:	52850513          	addi	a0,a0,1320 # 1083528 <_rt_mb_recv+0x3f2>
 108301e:	d13fe0ef          	jal	ra,1081d30 <rt_assert_handler>
 1083022:	4a01                	li	s4,0
 1083024:	b759                	j	1082faa <_rt_mb_send_wait+0x1f0>
 1083026:	0289a783          	lw	a5,40(s3)
 108302a:	02f90263          	beq	s2,a5,108304e <_rt_mb_send_wait+0x294>
 108302e:	0354c683          	lbu	a3,53(s1)
 1083032:	0217c703          	lbu	a4,33(a5)
 1083036:	00e6e463          	bltu	a3,a4,108303e <_rt_mb_send_wait+0x284>
 108303a:	439c                	lw	a5,0(a5)
 108303c:	b7fd                	j	108302a <_rt_mb_send_wait+0x270>
 108303e:	01448713          	addi	a4,s1,20
 1083042:	43d4                	lw	a3,4(a5)
 1083044:	c298                	sw	a4,0(a3)
 1083046:	43d4                	lw	a3,4(a5)
 1083048:	cc94                	sw	a3,24(s1)
 108304a:	c3d8                	sw	a4,4(a5)
 108304c:	c8dc                	sw	a5,20(s1)
 108304e:	00f90463          	beq	s2,a5,1083056 <_rt_mb_send_wait+0x29c>
 1083052:	4a01                	li	s4,0
 1083054:	bf99                	j	1082faa <_rt_mb_send_wait+0x1f0>
 1083056:	01448793          	addi	a5,s1,20
 108305a:	00492703          	lw	a4,4(s2)
 108305e:	c31c                	sw	a5,0(a4)
 1083060:	00492703          	lw	a4,4(s2)
 1083064:	cc98                	sw	a4,24(s1)
 1083066:	00f92223          	sw	a5,4(s2)
 108306a:	0124aa23          	sw	s2,20(s1)
 108306e:	4a01                	li	s4,0
 1083070:	bf2d                	j	1082faa <_rt_mb_send_wait+0x1f0>
 1083072:	8556                	mv	a0,s5
 1083074:	cb2fd0ef          	jal	ra,1080526 <rt_hw_interrupt_enable>
 1083078:	b5fd                	j	1082f66 <_rt_mb_send_wait+0x1ac>
 108307a:	bb7fd0ef          	jal	ra,1080c30 <rt_tick_get>
 108307e:	8b2a                	mv	s6,a0
 1083080:	05848913          	addi	s2,s1,88
 1083084:	fcc40613          	addi	a2,s0,-52
 1083088:	4581                	li	a1,0
 108308a:	854a                	mv	a0,s2
 108308c:	1fe050ef          	jal	ra,108828a <rt_timer_control>
 1083090:	854a                	mv	a0,s2
 1083092:	78d040ef          	jal	ra,108801e <rt_timer_start>
 1083096:	b705                	j	1082fb6 <_rt_mb_send_wait+0x1fc>
 1083098:	b99fd0ef          	jal	ra,1080c30 <rt_tick_get>
 108309c:	41650733          	sub	a4,a0,s6
 10830a0:	40ab0533          	sub	a0,s6,a0
 10830a4:	fcc42783          	lw	a5,-52(s0)
 10830a8:	97aa                	add	a5,a5,a0
 10830aa:	fcf42623          	sw	a5,-52(s0)
 10830ae:	0007c463          	bltz	a5,10830b6 <_rt_mb_send_wait+0x2fc>
 10830b2:	8b3a                	mv	s6,a4
 10830b4:	b71d                	j	1082fda <_rt_mb_send_wait+0x220>
 10830b6:	fc042623          	sw	zero,-52(s0)
 10830ba:	8b3a                	mv	s6,a4
 10830bc:	bf39                	j	1082fda <_rt_mb_send_wait+0x220>
 10830be:	01c9a783          	lw	a5,28(s3)
 10830c2:	0249d703          	lhu	a4,36(s3)
 10830c6:	070a                	slli	a4,a4,0x2
 10830c8:	97ba                	add	a5,a5,a4
 10830ca:	0187a023          	sw	s8,0(a5)
 10830ce:	0249d783          	lhu	a5,36(s3)
 10830d2:	0785                	addi	a5,a5,1
 10830d4:	07c2                	slli	a5,a5,0x10
 10830d6:	83c1                	srli	a5,a5,0x10
 10830d8:	02f99223          	sh	a5,36(s3)
 10830dc:	0209d703          	lhu	a4,32(s3)
 10830e0:	00e7e463          	bltu	a5,a4,10830e8 <_rt_mb_send_wait+0x32e>
 10830e4:	02099223          	sh	zero,36(s3)
 10830e8:	0229d783          	lhu	a5,34(s3)
 10830ec:	6741                	lui	a4,0x10
 10830ee:	177d                	addi	a4,a4,-1 # ffff <STACK_SIZE+0xbfff>
 10830f0:	02e78963          	beq	a5,a4,1083122 <_rt_mb_send_wait+0x368>
 10830f4:	0785                	addi	a5,a5,1
 10830f6:	02f99123          	sh	a5,34(s3)
 10830fa:	01498793          	addi	a5,s3,20
 10830fe:	0149a503          	lw	a0,20(s3)
 1083102:	02a78563          	beq	a5,a0,108312c <_rt_mb_send_wait+0x372>
 1083106:	00052e23          	sw	zero,28(a0)
 108310a:	1531                	addi	a0,a0,-20
 108310c:	0b4040ef          	jal	ra,10871c0 <rt_thread_resume>
 1083110:	8556                	mv	a0,s5
 1083112:	c14fd0ef          	jal	ra,1080526 <rt_hw_interrupt_enable>
 1083116:	7ef84097          	auipc	ra,0x7ef84
 108311a:	ac4080e7          	jalr	-1340(ra) # 80006bda <rt_schedule>
 108311e:	4a01                	li	s4,0
 1083120:	b599                	j	1082f66 <_rt_mb_send_wait+0x1ac>
 1083122:	8556                	mv	a0,s5
 1083124:	c02fd0ef          	jal	ra,1080526 <rt_hw_interrupt_enable>
 1083128:	5a11                	li	s4,-28
 108312a:	bd35                	j	1082f66 <_rt_mb_send_wait+0x1ac>
 108312c:	8556                	mv	a0,s5
 108312e:	bf8fd0ef          	jal	ra,1080526 <rt_hw_interrupt_enable>
 1083132:	4a01                	li	s4,0
 1083134:	bd0d                	j	1082f66 <_rt_mb_send_wait+0x1ac>

01083136 <_rt_mb_recv>:
 1083136:	7139                	addi	sp,sp,-64
 1083138:	de06                	sw	ra,60(sp)
 108313a:	dc22                	sw	s0,56(sp)
 108313c:	da26                	sw	s1,52(sp)
 108313e:	d84a                	sw	s2,48(sp)
 1083140:	d64e                	sw	s3,44(sp)
 1083142:	d452                	sw	s4,40(sp)
 1083144:	d256                	sw	s5,36(sp)
 1083146:	d05a                	sw	s6,32(sp)
 1083148:	ce5e                	sw	s7,28(sp)
 108314a:	cc62                	sw	s8,24(sp)
 108314c:	ca66                	sw	s9,20(sp)
 108314e:	0080                	addi	s0,sp,64
 1083150:	8a2a                	mv	s4,a0
 1083152:	8c2e                	mv	s8,a1
 1083154:	fcc42623          	sw	a2,-52(s0)
 1083158:	8bb6                	mv	s7,a3
 108315a:	c129                	beqz	a0,108319c <_rt_mb_recv+0x66>
 108315c:	8552                	mv	a0,s4
 108315e:	087040ef          	jal	ra,10879e4 <rt_object_get_type>
 1083162:	4795                	li	a5,5
 1083164:	04f51a63          	bne	a0,a5,10831b8 <_rt_mb_recv+0x82>
 1083168:	fcc42783          	lw	a5,-52(s0)
 108316c:	e7a5                	bnez	a5,10831d4 <_rt_mb_recv+0x9e>
 108316e:	0fb030ef          	jal	ra,1086a68 <rt_thread_self>
 1083172:	84aa                	mv	s1,a0
 1083174:	0108e7b7          	lui	a5,0x108e
 1083178:	aac7a783          	lw	a5,-1364(a5) # 108daac <rt_object_trytake_hook>
 108317c:	c399                	beqz	a5,1083182 <_rt_mb_recv+0x4c>
 108317e:	8552                	mv	a0,s4
 1083180:	9782                	jalr	a5
 1083182:	b9efd0ef          	jal	ra,1080520 <__ramfunc_start__>
 1083186:	8aaa                	mv	s5,a0
 1083188:	022a5783          	lhu	a5,34(s4)
 108318c:	2a079663          	bnez	a5,1083438 <_rt_mb_recv+0x302>
 1083190:	fcc42783          	lw	a5,-52(s0)
 1083194:	12078c63          	beqz	a5,10832cc <_rt_mb_recv+0x196>
 1083198:	4b01                	li	s6,0
 108319a:	a2c1                	j	108335a <_rt_mb_recv+0x224>
 108319c:	6605                	lui	a2,0x1
 108319e:	a7a60613          	addi	a2,a2,-1414 # a7a <__boot_header_length__+0x9ea>
 10831a2:	010865b7          	lui	a1,0x1086
 10831a6:	6ac58593          	addi	a1,a1,1708 # 10866ac <__FUNCTION__.9>
 10831aa:	01083537          	lui	a0,0x1083
 10831ae:	d6850513          	addi	a0,a0,-664 # 1082d68 <_rt_mutex_take+0x3e0>
 10831b2:	b7ffe0ef          	jal	ra,1081d30 <rt_assert_handler>
 10831b6:	b75d                	j	108315c <_rt_mb_recv+0x26>
 10831b8:	6605                	lui	a2,0x1
 10831ba:	a7b60613          	addi	a2,a2,-1413 # a7b <__boot_header_length__+0x9eb>
 10831be:	010865b7          	lui	a1,0x1086
 10831c2:	6ac58593          	addi	a1,a1,1708 # 10866ac <__FUNCTION__.9>
 10831c6:	01083537          	lui	a0,0x1083
 10831ca:	d7850513          	addi	a0,a0,-648 # 1082d78 <_rt_mutex_take+0x3f0>
 10831ce:	b63fe0ef          	jal	ra,1081d30 <rt_assert_handler>
 10831d2:	bf59                	j	1083168 <_rt_mb_recv+0x32>
 10831d4:	a3bfd0ef          	jal	ra,1080c0e <rt_hw_interrupt_is_disabled>
 10831d8:	892a                	mv	s2,a0
 10831da:	b46fd0ef          	jal	ra,1080520 <__ramfunc_start__>
 10831de:	84aa                	mv	s1,a0
 10831e0:	7ef84097          	auipc	ra,0x7ef84
 10831e4:	bd6080e7          	jalr	-1066(ra) # 80006db6 <rt_critical_level>
 10831e8:	e915                	bnez	a0,108321c <_rt_mb_recv+0xe6>
 10831ea:	4785                	li	a5,1
 10831ec:	04f90e63          	beq	s2,a5,1083248 <_rt_mb_recv+0x112>
 10831f0:	b30fd0ef          	jal	ra,1080520 <__ramfunc_start__>
 10831f4:	892a                	mv	s2,a0
 10831f6:	073030ef          	jal	ra,1086a68 <rt_thread_self>
 10831fa:	cd2d                	beqz	a0,1083274 <_rt_mb_recv+0x13e>
 10831fc:	b24fd0ef          	jal	ra,1080520 <__ramfunc_start__>
 1083200:	89aa                	mv	s3,a0
 1083202:	9e7fd0ef          	jal	ra,1080be8 <rt_interrupt_get_nest>
 1083206:	ed49                	bnez	a0,10832a0 <_rt_mb_recv+0x16a>
 1083208:	854e                	mv	a0,s3
 108320a:	b1cfd0ef          	jal	ra,1080526 <rt_hw_interrupt_enable>
 108320e:	854a                	mv	a0,s2
 1083210:	b16fd0ef          	jal	ra,1080526 <rt_hw_interrupt_enable>
 1083214:	8526                	mv	a0,s1
 1083216:	b10fd0ef          	jal	ra,1080526 <rt_hw_interrupt_enable>
 108321a:	bf91                	j	108316e <_rt_mb_recv+0x38>
 108321c:	010869b7          	lui	s3,0x1086
 1083220:	6ac98593          	addi	a1,s3,1708 # 10866ac <__FUNCTION__.9>
 1083224:	01083537          	lui	a0,0x1083
 1083228:	87c50513          	addi	a0,a0,-1924 # 108287c <_thread_update_priority+0x184>
 108322c:	f56fe0ef          	jal	ra,1081982 <rt_kprintf>
 1083230:	6605                	lui	a2,0x1
 1083232:	a7e60613          	addi	a2,a2,-1410 # a7e <__boot_header_length__+0x9ee>
 1083236:	6ac98593          	addi	a1,s3,1708
 108323a:	01083537          	lui	a0,0x1083
 108323e:	52850513          	addi	a0,a0,1320 # 1083528 <_rt_mb_recv+0x3f2>
 1083242:	aeffe0ef          	jal	ra,1081d30 <rt_assert_handler>
 1083246:	b755                	j	10831ea <_rt_mb_recv+0xb4>
 1083248:	01086937          	lui	s2,0x1086
 108324c:	6ac90593          	addi	a1,s2,1708 # 10866ac <__FUNCTION__.9>
 1083250:	01083537          	lui	a0,0x1083
 1083254:	8a850513          	addi	a0,a0,-1880 # 10828a8 <_thread_update_priority+0x1b0>
 1083258:	f2afe0ef          	jal	ra,1081982 <rt_kprintf>
 108325c:	6605                	lui	a2,0x1
 108325e:	a7e60613          	addi	a2,a2,-1410 # a7e <__boot_header_length__+0x9ee>
 1083262:	6ac90593          	addi	a1,s2,1708
 1083266:	01083537          	lui	a0,0x1083
 108326a:	52850513          	addi	a0,a0,1320 # 1083528 <_rt_mb_recv+0x3f2>
 108326e:	ac3fe0ef          	jal	ra,1081d30 <rt_assert_handler>
 1083272:	bfbd                	j	10831f0 <_rt_mb_recv+0xba>
 1083274:	010869b7          	lui	s3,0x1086
 1083278:	6ac98593          	addi	a1,s3,1708 # 10866ac <__FUNCTION__.9>
 108327c:	01083537          	lui	a0,0x1083
 1083280:	8d050513          	addi	a0,a0,-1840 # 10828d0 <_thread_update_priority+0x1d8>
 1083284:	efefe0ef          	jal	ra,1081982 <rt_kprintf>
 1083288:	6605                	lui	a2,0x1
 108328a:	a7e60613          	addi	a2,a2,-1410 # a7e <__boot_header_length__+0x9ee>
 108328e:	6ac98593          	addi	a1,s3,1708
 1083292:	01083537          	lui	a0,0x1083
 1083296:	52850513          	addi	a0,a0,1320 # 1083528 <_rt_mb_recv+0x3f2>
 108329a:	a97fe0ef          	jal	ra,1081d30 <rt_assert_handler>
 108329e:	bfb9                	j	10831fc <_rt_mb_recv+0xc6>
 10832a0:	01086ab7          	lui	s5,0x1086
 10832a4:	6aca8593          	addi	a1,s5,1708 # 10866ac <__FUNCTION__.9>
 10832a8:	01083537          	lui	a0,0x1083
 10832ac:	90850513          	addi	a0,a0,-1784 # 1082908 <_thread_update_priority+0x210>
 10832b0:	ed2fe0ef          	jal	ra,1081982 <rt_kprintf>
 10832b4:	6605                	lui	a2,0x1
 10832b6:	a7e60613          	addi	a2,a2,-1410 # a7e <__boot_header_length__+0x9ee>
 10832ba:	6aca8593          	addi	a1,s5,1708
 10832be:	01083537          	lui	a0,0x1083
 10832c2:	52850513          	addi	a0,a0,1320 # 1083528 <_rt_mb_recv+0x3f2>
 10832c6:	a6bfe0ef          	jal	ra,1081d30 <rt_assert_handler>
 10832ca:	bf3d                	j	1083208 <_rt_mb_recv+0xd2>
 10832cc:	a5afd0ef          	jal	ra,1080526 <rt_hw_interrupt_enable>
 10832d0:	f8c00993          	li	s3,-116
 10832d4:	a809                	j	10832e6 <_rt_mb_recv+0x1b0>
 10832d6:	8556                	mv	a0,s5
 10832d8:	a4efd0ef          	jal	ra,1080526 <rt_hw_interrupt_enable>
 10832dc:	f8c00793          	li	a5,-116
 10832e0:	d89c                	sw	a5,48(s1)
 10832e2:	f8c00993          	li	s3,-116
 10832e6:	854e                	mv	a0,s3
 10832e8:	50f2                	lw	ra,60(sp)
 10832ea:	5462                	lw	s0,56(sp)
 10832ec:	54d2                	lw	s1,52(sp)
 10832ee:	5942                	lw	s2,48(sp)
 10832f0:	59b2                	lw	s3,44(sp)
 10832f2:	5a22                	lw	s4,40(sp)
 10832f4:	5a92                	lw	s5,36(sp)
 10832f6:	5b02                	lw	s6,32(sp)
 10832f8:	4bf2                	lw	s7,28(sp)
 10832fa:	4c62                	lw	s8,24(sp)
 10832fc:	4cd2                	lw	s9,20(sp)
 10832fe:	6121                	addi	sp,sp,64
 1083300:	8082                	ret
 1083302:	85de                	mv	a1,s7
 1083304:	8526                	mv	a0,s1
 1083306:	2ab030ef          	jal	ra,1086db0 <rt_thread_suspend_with_flag>
 108330a:	89aa                	mv	s3,a0
 108330c:	c53d                	beqz	a0,108337a <_rt_mb_recv+0x244>
 108330e:	a831                	j	108332a <_rt_mb_recv+0x1f4>
 1083310:	01448793          	addi	a5,s1,20
 1083314:	00492703          	lw	a4,4(s2)
 1083318:	c31c                	sw	a5,0(a4)
 108331a:	00492703          	lw	a4,4(s2)
 108331e:	cc98                	sw	a4,24(s1)
 1083320:	00f92223          	sw	a5,4(s2)
 1083324:	0124aa23          	sw	s2,20(s1)
 1083328:	4981                	li	s3,0
 108332a:	0c099163          	bnez	s3,10833ec <_rt_mb_recv+0x2b6>
 108332e:	fcc42783          	lw	a5,-52(s0)
 1083332:	0cf04163          	bgtz	a5,10833f4 <_rt_mb_recv+0x2be>
 1083336:	8556                	mv	a0,s5
 1083338:	9eefd0ef          	jal	ra,1080526 <rt_hw_interrupt_enable>
 108333c:	7ef84097          	auipc	ra,0x7ef84
 1083340:	89e080e7          	jalr	-1890(ra) # 80006bda <rt_schedule>
 1083344:	0304a983          	lw	s3,48(s1)
 1083348:	f8099fe3          	bnez	s3,10832e6 <_rt_mb_recv+0x1b0>
 108334c:	9d4fd0ef          	jal	ra,1080520 <__ramfunc_start__>
 1083350:	8aaa                	mv	s5,a0
 1083352:	fcc42783          	lw	a5,-52(s0)
 1083356:	0af04e63          	bgtz	a5,1083412 <_rt_mb_recv+0x2dc>
 108335a:	022a5783          	lhu	a5,34(s4)
 108335e:	eff9                	bnez	a5,108343c <_rt_mb_recv+0x306>
 1083360:	57f1                	li	a5,-4
 1083362:	d89c                	sw	a5,48(s1)
 1083364:	fcc42783          	lw	a5,-52(s0)
 1083368:	d7bd                	beqz	a5,10832d6 <_rt_mb_recv+0x1a0>
 108336a:	014a0913          	addi	s2,s4,20
 108336e:	009a4c83          	lbu	s9,9(s4)
 1083372:	0344c783          	lbu	a5,52(s1)
 1083376:	8b91                	andi	a5,a5,4
 1083378:	d7c9                	beqz	a5,1083302 <_rt_mb_recv+0x1cc>
 108337a:	f80c8be3          	beqz	s9,1083310 <_rt_mb_recv+0x1da>
 108337e:	4785                	li	a5,1
 1083380:	02fc8063          	beq	s9,a5,10833a0 <_rt_mb_recv+0x26a>
 1083384:	0b600613          	li	a2,182
 1083388:	010865b7          	lui	a1,0x1086
 108338c:	60058593          	addi	a1,a1,1536 # 1086600 <__FUNCTION__.32>
 1083390:	01083537          	lui	a0,0x1083
 1083394:	52850513          	addi	a0,a0,1320 # 1083528 <_rt_mb_recv+0x3f2>
 1083398:	999fe0ef          	jal	ra,1081d30 <rt_assert_handler>
 108339c:	4981                	li	s3,0
 108339e:	b771                	j	108332a <_rt_mb_recv+0x1f4>
 10833a0:	014a2783          	lw	a5,20(s4)
 10833a4:	02f90263          	beq	s2,a5,10833c8 <_rt_mb_recv+0x292>
 10833a8:	0354c683          	lbu	a3,53(s1)
 10833ac:	0217c703          	lbu	a4,33(a5)
 10833b0:	00e6e463          	bltu	a3,a4,10833b8 <_rt_mb_recv+0x282>
 10833b4:	439c                	lw	a5,0(a5)
 10833b6:	b7fd                	j	10833a4 <_rt_mb_recv+0x26e>
 10833b8:	01448713          	addi	a4,s1,20
 10833bc:	43d4                	lw	a3,4(a5)
 10833be:	c298                	sw	a4,0(a3)
 10833c0:	43d4                	lw	a3,4(a5)
 10833c2:	cc94                	sw	a3,24(s1)
 10833c4:	c3d8                	sw	a4,4(a5)
 10833c6:	c8dc                	sw	a5,20(s1)
 10833c8:	00f90463          	beq	s2,a5,10833d0 <_rt_mb_recv+0x29a>
 10833cc:	4981                	li	s3,0
 10833ce:	bfb1                	j	108332a <_rt_mb_recv+0x1f4>
 10833d0:	01448793          	addi	a5,s1,20
 10833d4:	00492703          	lw	a4,4(s2)
 10833d8:	c31c                	sw	a5,0(a4)
 10833da:	00492703          	lw	a4,4(s2)
 10833de:	cc98                	sw	a4,24(s1)
 10833e0:	00f92223          	sw	a5,4(s2)
 10833e4:	0124aa23          	sw	s2,20(s1)
 10833e8:	4981                	li	s3,0
 10833ea:	b781                	j	108332a <_rt_mb_recv+0x1f4>
 10833ec:	8556                	mv	a0,s5
 10833ee:	938fd0ef          	jal	ra,1080526 <rt_hw_interrupt_enable>
 10833f2:	bdd5                	j	10832e6 <_rt_mb_recv+0x1b0>
 10833f4:	83dfd0ef          	jal	ra,1080c30 <rt_tick_get>
 10833f8:	8b2a                	mv	s6,a0
 10833fa:	05848913          	addi	s2,s1,88
 10833fe:	fcc40613          	addi	a2,s0,-52
 1083402:	4581                	li	a1,0
 1083404:	854a                	mv	a0,s2
 1083406:	685040ef          	jal	ra,108828a <rt_timer_control>
 108340a:	854a                	mv	a0,s2
 108340c:	413040ef          	jal	ra,108801e <rt_timer_start>
 1083410:	b71d                	j	1083336 <_rt_mb_recv+0x200>
 1083412:	81ffd0ef          	jal	ra,1080c30 <rt_tick_get>
 1083416:	41650733          	sub	a4,a0,s6
 108341a:	40ab0533          	sub	a0,s6,a0
 108341e:	fcc42783          	lw	a5,-52(s0)
 1083422:	97aa                	add	a5,a5,a0
 1083424:	fcf42623          	sw	a5,-52(s0)
 1083428:	0007c463          	bltz	a5,1083430 <_rt_mb_recv+0x2fa>
 108342c:	8b3a                	mv	s6,a4
 108342e:	b735                	j	108335a <_rt_mb_recv+0x224>
 1083430:	fc042623          	sw	zero,-52(s0)
 1083434:	8b3a                	mv	s6,a4
 1083436:	b715                	j	108335a <_rt_mb_recv+0x224>
 1083438:	4b01                	li	s6,0
 108343a:	b705                	j	108335a <_rt_mb_recv+0x224>
 108343c:	01ca2783          	lw	a5,28(s4)
 1083440:	026a5703          	lhu	a4,38(s4)
 1083444:	070a                	slli	a4,a4,0x2
 1083446:	97ba                	add	a5,a5,a4
 1083448:	439c                	lw	a5,0(a5)
 108344a:	00fc2023          	sw	a5,0(s8) # 1a000 <__fw_size__+0x50c8>
 108344e:	026a5783          	lhu	a5,38(s4)
 1083452:	0785                	addi	a5,a5,1
 1083454:	07c2                	slli	a5,a5,0x10
 1083456:	83c1                	srli	a5,a5,0x10
 1083458:	02fa1323          	sh	a5,38(s4)
 108345c:	020a5703          	lhu	a4,32(s4)
 1083460:	00e7e463          	bltu	a5,a4,1083468 <_rt_mb_recv+0x332>
 1083464:	020a1323          	sh	zero,38(s4)
 1083468:	022a5783          	lhu	a5,34(s4)
 108346c:	c781                	beqz	a5,1083474 <_rt_mb_recv+0x33e>
 108346e:	17fd                	addi	a5,a5,-1
 1083470:	02fa1123          	sh	a5,34(s4)
 1083474:	028a0793          	addi	a5,s4,40
 1083478:	028a2503          	lw	a0,40(s4)
 108347c:	02a78763          	beq	a5,a0,10834aa <_rt_mb_recv+0x374>
 1083480:	00052e23          	sw	zero,28(a0)
 1083484:	1531                	addi	a0,a0,-20
 1083486:	53b030ef          	jal	ra,10871c0 <rt_thread_resume>
 108348a:	8556                	mv	a0,s5
 108348c:	89afd0ef          	jal	ra,1080526 <rt_hw_interrupt_enable>
 1083490:	0108e7b7          	lui	a5,0x108e
 1083494:	aa87a783          	lw	a5,-1368(a5) # 108daa8 <rt_object_take_hook>
 1083498:	c399                	beqz	a5,108349e <_rt_mb_recv+0x368>
 108349a:	8552                	mv	a0,s4
 108349c:	9782                	jalr	a5
 108349e:	7ef83097          	auipc	ra,0x7ef83
 10834a2:	73c080e7          	jalr	1852(ra) # 80006bda <rt_schedule>
 10834a6:	4981                	li	s3,0
 10834a8:	bd3d                	j	10832e6 <_rt_mb_recv+0x1b0>
 10834aa:	8556                	mv	a0,s5
 10834ac:	87afd0ef          	jal	ra,1080526 <rt_hw_interrupt_enable>
 10834b0:	0108e7b7          	lui	a5,0x108e
 10834b4:	aa87a783          	lw	a5,-1368(a5) # 108daa8 <rt_object_take_hook>
 10834b8:	c789                	beqz	a5,10834c2 <_rt_mb_recv+0x38c>
 10834ba:	8552                	mv	a0,s4
 10834bc:	9782                	jalr	a5
 10834be:	4981                	li	s3,0
 10834c0:	b51d                	j	10832e6 <_rt_mb_recv+0x1b0>
 10834c2:	4981                	li	s3,0
 10834c4:	b50d                	j	10832e6 <_rt_mb_recv+0x1b0>
 10834c6:	0000                	unimp
 10834c8:	716d                	addi	sp,sp,-272
 10834ca:	2120                	.2byte	0x2120
 10834cc:	203d                	jal	10834fa <_rt_mb_recv+0x3c4>
 10834ce:	5452                	lw	s0,52(sp)
 10834d0:	4e5f 4c55 004c      	.byte	0x5f, 0x4e, 0x55, 0x4c, 0x4c, 0x00
 10834d6:	0000                	unimp
 10834d8:	7472                	.2byte	0x7472
 10834da:	6f5f 6a62 6365      	.byte	0x5f, 0x6f, 0x62, 0x6a, 0x65, 0x63
 10834e0:	5f74                	lw	a3,124(a4)
 10834e2:	5f746567          	.4byte	0x5f746567
 10834e6:	7974                	.2byte	0x7974
 10834e8:	6570                	.2byte	0x6570
 10834ea:	2628                	.2byte	0x2628
 10834ec:	716d                	addi	sp,sp,-272
 10834ee:	3e2d                	jal	1083028 <_rt_mb_send_wait+0x26e>
 10834f0:	6170                	.2byte	0x6170
 10834f2:	6572                	.2byte	0x6572
 10834f4:	746e                	.2byte	0x746e
 10834f6:	702e                	.2byte	0x702e
 10834f8:	7261                	lui	tp,0xffff8
 10834fa:	6e65                	lui	t3,0x19
 10834fc:	2974                	.2byte	0x2974
 10834fe:	3d20                	.2byte	0x3d20
 1083500:	203d                	jal	108352e <_rt_mq_send_wait+0x4>
 1083502:	5452                	lw	s0,52(sp)
 1083504:	4f5f 6a62 6365      	.byte	0x5f, 0x4f, 0x62, 0x6a, 0x65, 0x63
 108350a:	5f74                	lw	a3,124(a4)
 108350c:	73616c43          	.4byte	0x73616c43
 1083510:	654d5f73          	csrrwi	t5,0x654,26
 1083514:	67617373          	csrrci	t1,0x676,2
 1083518:	5165                	li	sp,-7
 108351a:	6575                	lui	a0,0x1d
 108351c:	6575                	lui	a0,0x1d
 108351e:	0000                	unimp
 1083520:	657a6973          	csrrsi	s2,0x657,20
 1083524:	2120                	.2byte	0x2120
 1083526:	203d                	jal	1083554 <_rt_mq_send_wait+0x2a>
 1083528:	0030                	addi	a2,sp,8

0108352a <_rt_mq_send_wait>:
 108352a:	7139                	addi	sp,sp,-64
 108352c:	de06                	sw	ra,60(sp)
 108352e:	dc22                	sw	s0,56(sp)
 1083530:	da26                	sw	s1,52(sp)
 1083532:	d84a                	sw	s2,48(sp)
 1083534:	d64e                	sw	s3,44(sp)
 1083536:	d452                	sw	s4,40(sp)
 1083538:	d256                	sw	s5,36(sp)
